
fwrite_test.elf:     file format elf32-littlearm


Disassembly of section .text:

00000000 <__Vectors>:
       0:	00 80 00 10 3d 08 00 00 45 08 00 00 47 08 00 00     ....=...E...G...
      10:	49 08 00 00 4b 08 00 00 4d 08 00 00 00 00 00 00     I...K...M.......
	...
      2c:	4f 08 00 00 51 08 00 00 00 00 00 00 53 08 00 00     O...Q.......S...
      3c:	55 08 00 00 57 08 00 00 57 08 00 00 57 08 00 00     U...W...W...W...
      4c:	57 08 00 00 57 08 00 00 57 08 00 00 57 08 00 00     W...W...W...W...
      5c:	57 08 00 00 57 08 00 00 57 08 00 00 57 08 00 00     W...W...W...W...
      6c:	57 08 00 00 57 08 00 00 57 08 00 00 57 08 00 00     W...W...W...W...
      7c:	57 08 00 00 57 08 00 00 57 08 00 00 57 08 00 00     W...W...W...W...
      8c:	57 08 00 00 57 08 00 00 57 08 00 00 57 08 00 00     W...W...W...W...
      9c:	57 08 00 00 57 08 00 00 57 08 00 00 57 08 00 00     W...W...W...W...
      ac:	57 08 00 00 57 08 00 00 57 08 00 00 57 08 00 00     W...W...W...W...
      bc:	57 08 00 00 57 08 00 00                             W...W...

000000c4 <__main>:
      c4:	4839      	ldr	r0, [pc, #228]	; (1ac <__main+0xe8>)
      c6:	493a      	ldr	r1, [pc, #232]	; (1b0 <__main+0xec>)
      c8:	b570      	push	{r4, r5, r6, lr}
      ca:	4288      	cmp	r0, r1
      cc:	d023      	beq.n	116 <__main+0x52>
      ce:	4c39      	ldr	r4, [pc, #228]	; (1b4 <__main+0xf0>)
      d0:	42a1      	cmp	r1, r4
      d2:	d220      	bcs.n	116 <__main+0x52>
      d4:	4602      	mov	r2, r0
      d6:	f852 6b04 	ldr.w	r6, [r2], #4
      da:	460b      	mov	r3, r1
      dc:	43cd      	mvns	r5, r1
      de:	f843 6b04 	str.w	r6, [r3], #4
      e2:	1965      	adds	r5, r4, r5
      e4:	42a3      	cmp	r3, r4
      e6:	f3c5 0580 	ubfx	r5, r5, #2, #1
      ea:	d214      	bcs.n	116 <__main+0x52>
      ec:	b13d      	cbz	r5, fe <__main+0x3a>
      ee:	6816      	ldr	r6, [r2, #0]
      f0:	f100 0208 	add.w	r2, r0, #8
      f4:	601e      	str	r6, [r3, #0]
      f6:	f101 0308 	add.w	r3, r1, #8
      fa:	42a3      	cmp	r3, r4
      fc:	d20b      	bcs.n	116 <__main+0x52>
      fe:	4610      	mov	r0, r2
     100:	f850 5b04 	ldr.w	r5, [r0], #4
     104:	4619      	mov	r1, r3
     106:	f841 5b04 	str.w	r5, [r1], #4
     10a:	6856      	ldr	r6, [r2, #4]
     10c:	1d02      	adds	r2, r0, #4
     10e:	605e      	str	r6, [r3, #4]
     110:	1d0b      	adds	r3, r1, #4
     112:	42a3      	cmp	r3, r4
     114:	d3f3      	bcc.n	fe <__main+0x3a>
     116:	4828      	ldr	r0, [pc, #160]	; (1b8 <__main+0xf4>)
     118:	4928      	ldr	r1, [pc, #160]	; (1bc <__main+0xf8>)
     11a:	4288      	cmp	r0, r1
     11c:	d024      	beq.n	168 <__main+0xa4>
     11e:	4c28      	ldr	r4, [pc, #160]	; (1c0 <__main+0xfc>)
     120:	42a1      	cmp	r1, r4
     122:	d221      	bcs.n	168 <__main+0xa4>
     124:	4602      	mov	r2, r0
     126:	f852 6b04 	ldr.w	r6, [r2], #4
     12a:	460b      	mov	r3, r1
     12c:	43cd      	mvns	r5, r1
     12e:	f843 6b04 	str.w	r6, [r3], #4
     132:	eb04 0c05 	add.w	ip, r4, r5
     136:	42a3      	cmp	r3, r4
     138:	f3cc 0580 	ubfx	r5, ip, #2, #1
     13c:	d214      	bcs.n	168 <__main+0xa4>
     13e:	b13d      	cbz	r5, 150 <__main+0x8c>
     140:	6815      	ldr	r5, [r2, #0]
     142:	f100 0208 	add.w	r2, r0, #8
     146:	601d      	str	r5, [r3, #0]
     148:	f101 0308 	add.w	r3, r1, #8
     14c:	42a3      	cmp	r3, r4
     14e:	d20b      	bcs.n	168 <__main+0xa4>
     150:	4610      	mov	r0, r2
     152:	f850 5b04 	ldr.w	r5, [r0], #4
     156:	4619      	mov	r1, r3
     158:	f841 5b04 	str.w	r5, [r1], #4
     15c:	6856      	ldr	r6, [r2, #4]
     15e:	1d02      	adds	r2, r0, #4
     160:	605e      	str	r6, [r3, #4]
     162:	1d0b      	adds	r3, r1, #4
     164:	42a3      	cmp	r3, r4
     166:	d3f3      	bcc.n	150 <__main+0x8c>
     168:	4a16      	ldr	r2, [pc, #88]	; (1c4 <__main+0x100>)
     16a:	4817      	ldr	r0, [pc, #92]	; (1c8 <__main+0x104>)
     16c:	4282      	cmp	r2, r0
     16e:	d216      	bcs.n	19e <__main+0xda>
     170:	2100      	movs	r1, #0
     172:	4613      	mov	r3, r2
     174:	43d6      	mvns	r6, r2
     176:	f843 1b04 	str.w	r1, [r3], #4
     17a:	1984      	adds	r4, r0, r6
     17c:	4283      	cmp	r3, r0
     17e:	f3c4 0480 	ubfx	r4, r4, #2, #1
     182:	d20c      	bcs.n	19e <__main+0xda>
     184:	b124      	cbz	r4, 190 <__main+0xcc>
     186:	6019      	str	r1, [r3, #0]
     188:	f102 0308 	add.w	r3, r2, #8
     18c:	4283      	cmp	r3, r0
     18e:	d206      	bcs.n	19e <__main+0xda>
     190:	461a      	mov	r2, r3
     192:	f842 1b04 	str.w	r1, [r2], #4
     196:	6059      	str	r1, [r3, #4]
     198:	1d13      	adds	r3, r2, #4
     19a:	4283      	cmp	r3, r0
     19c:	d3f8      	bcc.n	190 <__main+0xcc>
     19e:	f006 fcdf 	bl	6b60 <__libc_init_array>
     1a2:	f000 faa1 	bl	6e8 <main>
     1a6:	f011 fd29 	bl	11bfc <exit>
     1aa:	bf00      	nop
     1ac:	00012674 	.word	0x00012674
     1b0:	10000000 	.word	0x10000000
     1b4:	10000680 	.word	0x10000680
     1b8:	00012cf4 	.word	0x00012cf4
     1bc:	100008fc 	.word	0x100008fc
     1c0:	100008fc 	.word	0x100008fc
     1c4:	10000680 	.word	0x10000680
     1c8:	100008fc 	.word	0x100008fc

000001cc <SystemInit>:
     1cc:	481b      	ldr	r0, [pc, #108]	; (23c <SystemInit+0x70>)
     1ce:	2120      	movs	r1, #32
     1d0:	f8c0 11a0 	str.w	r1, [r0, #416]	; 0x1a0
     1d4:	f8d0 11a0 	ldr.w	r1, [r0, #416]	; 0x1a0
     1d8:	f011 0f40 	tst.w	r1, #64	; 0x40
     1dc:	d0fa      	beq.n	1d4 <SystemInit+0x8>
     1de:	2102      	movs	r1, #2
     1e0:	f8c0 1104 	str.w	r1, [r0, #260]	; 0x104
     1e4:	2101      	movs	r1, #1
     1e6:	f8c0 110c 	str.w	r1, [r0, #268]	; 0x10c
     1ea:	220b      	movs	r2, #11
     1ec:	f8c0 2084 	str.w	r2, [r0, #132]	; 0x84
     1f0:	f8c0 1080 	str.w	r1, [r0, #128]	; 0x80
     1f4:	22aa      	movs	r2, #170	; 0xaa
     1f6:	f8c0 208c 	str.w	r2, [r0, #140]	; 0x8c
     1fa:	2355      	movs	r3, #85	; 0x55
     1fc:	f8c0 308c 	str.w	r3, [r0, #140]	; 0x8c
     200:	f8d0 1088 	ldr.w	r1, [r0, #136]	; 0x88
     204:	f011 6f80 	tst.w	r1, #67108864	; 0x4000000
     208:	d0fa      	beq.n	200 <SystemInit+0x34>
     20a:	2103      	movs	r1, #3
     20c:	f8c0 1080 	str.w	r1, [r0, #128]	; 0x80
     210:	f8c0 208c 	str.w	r2, [r0, #140]	; 0x8c
     214:	f8c0 308c 	str.w	r3, [r0, #140]	; 0x8c
     218:	2105      	movs	r1, #5
     21a:	f8c0 1108 	str.w	r1, [r0, #264]	; 0x108
     21e:	2100      	movs	r1, #0
     220:	f8c0 11a8 	str.w	r1, [r0, #424]	; 0x1a8
     224:	f8c0 11ac 	str.w	r1, [r0, #428]	; 0x1ac
     228:	4a05      	ldr	r2, [pc, #20]	; (240 <SystemInit+0x74>)
     22a:	f8c0 20c4 	str.w	r2, [r0, #196]	; 0xc4
     22e:	f8c0 11c8 	str.w	r1, [r0, #456]	; 0x1c8
     232:	f243 013a 	movw	r1, #12346	; 0x303a
     236:	6001      	str	r1, [r0, #0]
     238:	4770      	bx	lr
     23a:	0000      	.short	0x0000
     23c:	400fc000 	.word	0x400fc000
     240:	042887de 	.word	0x042887de
	...

00000300 <__do_global_dtors_aux>:
     300:	f240 6380 	movw	r3, #1664	; 0x680
     304:	f2c1 0300 	movt	r3, #4096	; 0x1000
     308:	781a      	ldrb	r2, [r3, #0]
     30a:	b90a      	cbnz	r2, 310 <__do_global_dtors_aux+0x10>
     30c:	2001      	movs	r0, #1
     30e:	7018      	strb	r0, [r3, #0]
     310:	4770      	bx	lr
     312:	bf00      	nop

00000314 <frame_dummy>:
     314:	f240 6080 	movw	r0, #1664	; 0x680
     318:	f2c1 0000 	movt	r0, #4096	; 0x1000
     31c:	b508      	push	{r3, lr}
     31e:	6803      	ldr	r3, [r0, #0]
     320:	b12b      	cbz	r3, 32e <frame_dummy+0x1a>
     322:	f240 0300 	movw	r3, #0
     326:	f2c0 0300 	movt	r3, #0
     32a:	b103      	cbz	r3, 32e <frame_dummy+0x1a>
     32c:	4798      	blx	r3
     32e:	bd08      	pop	{r3, pc}

00000330 <__GCC4MBEDOpenStandardHandles>:
     330:	b508      	push	{r3, lr}
     332:	2100      	movs	r1, #0
     334:	4807      	ldr	r0, [pc, #28]	; (354 <__GCC4MBEDOpenStandardHandles+0x24>)
     336:	f010 fd79 	bl	10e2c <_sys_open>
     33a:	2104      	movs	r1, #4
     33c:	4806      	ldr	r0, [pc, #24]	; (358 <__GCC4MBEDOpenStandardHandles+0x28>)
     33e:	f010 fd75 	bl	10e2c <_sys_open>
     342:	4806      	ldr	r0, [pc, #24]	; (35c <__GCC4MBEDOpenStandardHandles+0x2c>)
     344:	2104      	movs	r1, #4
     346:	f010 fd71 	bl	10e2c <_sys_open>
     34a:	4b05      	ldr	r3, [pc, #20]	; (360 <__GCC4MBEDOpenStandardHandles+0x30>)
     34c:	2201      	movs	r2, #1
     34e:	601a      	str	r2, [r3, #0]
     350:	bd08      	pop	{r3, pc}
     352:	bf00      	nop
     354:	0000f224 	.word	0x0000f224
     358:	0000f22c 	.word	0x0000f22c
     35c:	0000f234 	.word	0x0000f234
     360:	1000068c 	.word	0x1000068c

00000364 <_kill>:
     364:	4b02      	ldr	r3, [pc, #8]	; (370 <_kill+0xc>)
     366:	2216      	movs	r2, #22
     368:	601a      	str	r2, [r3, #0]
     36a:	f04f 30ff 	mov.w	r0, #4294967295
     36e:	4770      	bx	lr
     370:	100007f8 	.word	0x100007f8

00000374 <_exit>:
     374:	b508      	push	{r3, lr}
     376:	f011 fc41 	bl	11bfc <exit>
     37a:	bf00      	nop

0000037c <_getpid>:
     37c:	2001      	movs	r0, #1
     37e:	4770      	bx	lr

00000380 <_sbrk>:
     380:	b570      	push	{r4, r5, r6, lr}
     382:	4d09      	ldr	r5, [pc, #36]	; (3a8 <_sbrk+0x28>)
     384:	4606      	mov	r6, r0
     386:	682c      	ldr	r4, [r5, #0]
     388:	b14c      	cbz	r4, 39e <_sbrk+0x1e>
     38a:	f011 fa79 	bl	11880 <__get_MSP>
     38e:	19a3      	adds	r3, r4, r6
     390:	4283      	cmp	r3, r0
     392:	d807      	bhi.n	3a4 <_sbrk+0x24>
     394:	6829      	ldr	r1, [r5, #0]
     396:	4620      	mov	r0, r4
     398:	198e      	adds	r6, r1, r6
     39a:	602e      	str	r6, [r5, #0]
     39c:	bd70      	pop	{r4, r5, r6, pc}
     39e:	4c03      	ldr	r4, [pc, #12]	; (3ac <_sbrk+0x2c>)
     3a0:	602c      	str	r4, [r5, #0]
     3a2:	e7f2      	b.n	38a <_sbrk+0xa>
     3a4:	f005 fc6a 	bl	5c7c <abort>
     3a8:	10000688 	.word	0x10000688
     3ac:	10000900 	.word	0x10000900

000003b0 <_open>:
     3b0:	f001 0302 	and.w	r3, r1, #2
     3b4:	f411 6f80 	tst.w	r1, #1024	; 0x400
     3b8:	bf18      	it	ne
     3ba:	f043 0304 	orrne.w	r3, r3, #4
     3be:	f011 0f08 	tst.w	r1, #8
     3c2:	bf18      	it	ne
     3c4:	f043 0308 	orrne.w	r3, r3, #8
     3c8:	4619      	mov	r1, r3
     3ca:	f010 bd2f 	b.w	10e2c <_sys_open>
     3ce:	bf00      	nop

000003d0 <_close>:
     3d0:	f010 bd02 	b.w	10dd8 <_sys_close>

000003d4 <_isatty>:
     3d4:	2802      	cmp	r0, #2
     3d6:	dc01      	bgt.n	3dc <_isatty+0x8>
     3d8:	2001      	movs	r0, #1
     3da:	4770      	bx	lr
     3dc:	f010 bd12 	b.w	10e04 <_sys_istty>

000003e0 <_lseek>:
     3e0:	2802      	cmp	r0, #2
     3e2:	e92d 47f0 	stmdb	sp!, {r4, r5, r6, r7, r8, r9, sl, lr}
     3e6:	dd6e      	ble.n	4c6 <_lseek+0xe6>
     3e8:	4f40      	ldr	r7, [pc, #256]	; (4ec <_lseek+0x10c>)
     3ea:	683b      	ldr	r3, [r7, #0]
     3ec:	2b00      	cmp	r3, #0
     3ee:	d161      	bne.n	4b4 <_lseek+0xd4>
     3f0:	4d3f      	ldr	r5, [pc, #252]	; (4f0 <_lseek+0x110>)
     3f2:	4c40      	ldr	r4, [pc, #256]	; (4f4 <_lseek+0x114>)
     3f4:	f025 0c01 	bic.w	ip, r5, #1
     3f8:	4665      	mov	r5, ip
     3fa:	f10c 0628 	add.w	r6, ip, #40	; 0x28
     3fe:	f815 ab01 	ldrb.w	sl, [r5], #1
     402:	f3c3 084f 	ubfx	r8, r3, #1, #16
     406:	ea83 030a 	eor.w	r3, r3, sl
     40a:	f013 0f01 	tst.w	r3, #1
     40e:	bf1c      	itt	ne
     410:	ea88 0804 	eorne.w	r8, r8, r4
     414:	fa1f f888 	uxthne.w	r8, r8
     418:	ea4f 095a 	mov.w	r9, sl, lsr #1
     41c:	ea88 0a09 	eor.w	sl, r8, r9
     420:	ea4f 0358 	mov.w	r3, r8, lsr #1
     424:	f01a 0f01 	tst.w	sl, #1
     428:	bf1c      	itt	ne
     42a:	4063      	eorne	r3, r4
     42c:	b29b      	uxthne	r3, r3
     42e:	ea4f 0859 	mov.w	r8, r9, lsr #1
     432:	ea83 0908 	eor.w	r9, r3, r8
     436:	085b      	lsrs	r3, r3, #1
     438:	f019 0f01 	tst.w	r9, #1
     43c:	bf1c      	itt	ne
     43e:	4063      	eorne	r3, r4
     440:	b29b      	uxthne	r3, r3
     442:	ea4f 0858 	mov.w	r8, r8, lsr #1
     446:	ea83 0908 	eor.w	r9, r3, r8
     44a:	085b      	lsrs	r3, r3, #1
     44c:	f019 0f01 	tst.w	r9, #1
     450:	bf1c      	itt	ne
     452:	4063      	eorne	r3, r4
     454:	b29b      	uxthne	r3, r3
     456:	ea4f 0858 	mov.w	r8, r8, lsr #1
     45a:	ea83 0908 	eor.w	r9, r3, r8
     45e:	085b      	lsrs	r3, r3, #1
     460:	f019 0f01 	tst.w	r9, #1
     464:	bf1c      	itt	ne
     466:	4063      	eorne	r3, r4
     468:	b29b      	uxthne	r3, r3
     46a:	ea4f 0858 	mov.w	r8, r8, lsr #1
     46e:	ea83 0908 	eor.w	r9, r3, r8
     472:	085b      	lsrs	r3, r3, #1
     474:	f019 0f01 	tst.w	r9, #1
     478:	bf1c      	itt	ne
     47a:	4063      	eorne	r3, r4
     47c:	b29b      	uxthne	r3, r3
     47e:	ea4f 0858 	mov.w	r8, r8, lsr #1
     482:	ea83 0908 	eor.w	r9, r3, r8
     486:	085b      	lsrs	r3, r3, #1
     488:	f019 0f01 	tst.w	r9, #1
     48c:	bf1c      	itt	ne
     48e:	4063      	eorne	r3, r4
     490:	b29b      	uxthne	r3, r3
     492:	ea83 0858 	eor.w	r8, r3, r8, lsr #1
     496:	085b      	lsrs	r3, r3, #1
     498:	f018 0f01 	tst.w	r8, #1
     49c:	bf1c      	itt	ne
     49e:	4063      	eorne	r3, r4
     4a0:	b29b      	uxthne	r3, r3
     4a2:	42b5      	cmp	r5, r6
     4a4:	d1ab      	bne.n	3fe <_lseek+0x1e>
     4a6:	f242 043f 	movw	r4, #8255	; 0x203f
     4aa:	42a3      	cmp	r3, r4
     4ac:	d112      	bne.n	4d4 <_lseek+0xf4>
     4ae:	f8dc 3028 	ldr.w	r3, [ip, #40]	; 0x28
     4b2:	603b      	str	r3, [r7, #0]
     4b4:	3803      	subs	r0, #3
     4b6:	f853 0020 	ldr.w	r0, [r3, r0, lsl #2]
     4ba:	b138      	cbz	r0, 4cc <_lseek+0xec>
     4bc:	6803      	ldr	r3, [r0, #0]
     4be:	691b      	ldr	r3, [r3, #16]
     4c0:	4798      	blx	r3
     4c2:	e8bd 87f0 	ldmia.w	sp!, {r4, r5, r6, r7, r8, r9, sl, pc}
     4c6:	2000      	movs	r0, #0
     4c8:	e8bd 87f0 	ldmia.w	sp!, {r4, r5, r6, r7, r8, r9, sl, pc}
     4cc:	f04f 30ff 	mov.w	r0, #4294967295
     4d0:	e8bd 87f0 	ldmia.w	sp!, {r4, r5, r6, r7, r8, r9, sl, pc}
     4d4:	4908      	ldr	r1, [pc, #32]	; (4f8 <_lseek+0x118>)
     4d6:	4809      	ldr	r0, [pc, #36]	; (4fc <_lseek+0x11c>)
     4d8:	680c      	ldr	r4, [r1, #0]
     4da:	226b      	movs	r2, #107	; 0x6b
     4dc:	2101      	movs	r1, #1
     4de:	68e3      	ldr	r3, [r4, #12]
     4e0:	f006 fb2e 	bl	6b40 <fwrite>
     4e4:	2001      	movs	r0, #1
     4e6:	f011 fb89 	bl	11bfc <exit>
     4ea:	bf00      	nop
     4ec:	10000684 	.word	0x10000684
     4f0:	00010ff1 	.word	0x00010ff1
     4f4:	ffffa001 	.word	0xffffa001
     4f8:	100001dc 	.word	0x100001dc
     4fc:	0000f23c 	.word	0x0000f23c

00000500 <_read>:
     500:	b510      	push	{r4, lr}
     502:	4c0b      	ldr	r4, [pc, #44]	; (530 <_read+0x30>)
     504:	b082      	sub	sp, #8
     506:	6823      	ldr	r3, [r4, #0]
     508:	4614      	mov	r4, r2
     50a:	b90b      	cbnz	r3, 510 <_read+0x10>
     50c:	2802      	cmp	r0, #2
     50e:	dd08      	ble.n	522 <_read+0x22>
     510:	4622      	mov	r2, r4
     512:	2300      	movs	r3, #0
     514:	f010 fd4c 	bl	10fb0 <_sys_read>
     518:	f020 4000 	bic.w	r0, r0, #2147483648	; 0x80000000
     51c:	1a20      	subs	r0, r4, r0
     51e:	b002      	add	sp, #8
     520:	bd10      	pop	{r4, pc}
     522:	9001      	str	r0, [sp, #4]
     524:	9100      	str	r1, [sp, #0]
     526:	f7ff ff03 	bl	330 <__GCC4MBEDOpenStandardHandles>
     52a:	9900      	ldr	r1, [sp, #0]
     52c:	9801      	ldr	r0, [sp, #4]
     52e:	e7ef      	b.n	510 <_read+0x10>
     530:	1000068c 	.word	0x1000068c

00000534 <_write>:
     534:	b510      	push	{r4, lr}
     536:	4c0c      	ldr	r4, [pc, #48]	; (568 <_write+0x34>)
     538:	b082      	sub	sp, #8
     53a:	6823      	ldr	r3, [r4, #0]
     53c:	4614      	mov	r4, r2
     53e:	b90b      	cbnz	r3, 544 <_write+0x10>
     540:	2802      	cmp	r0, #2
     542:	dd09      	ble.n	558 <_write+0x24>
     544:	2300      	movs	r3, #0
     546:	4622      	mov	r2, r4
     548:	f010 fd68 	bl	1101c <_sys_write>
     54c:	2800      	cmp	r0, #0
     54e:	bfa8      	it	ge
     550:	ebc0 0004 	rsbge	r0, r0, r4
     554:	b002      	add	sp, #8
     556:	bd10      	pop	{r4, pc}
     558:	9001      	str	r0, [sp, #4]
     55a:	9100      	str	r1, [sp, #0]
     55c:	f7ff fee8 	bl	330 <__GCC4MBEDOpenStandardHandles>
     560:	9900      	ldr	r1, [sp, #0]
     562:	9801      	ldr	r0, [sp, #4]
     564:	e7ee      	b.n	544 <_write+0x10>
     566:	bf00      	nop
     568:	1000068c 	.word	0x1000068c

0000056c <_fstat>:
     56c:	f44f 5300 	mov.w	r3, #8192	; 0x2000
     570:	604b      	str	r3, [r1, #4]
     572:	2000      	movs	r0, #0
     574:	4770      	bx	lr
     576:	bf00      	nop

00000578 <_ZN4mbed14FileSystemLike6renameEPKcS2_>:
     578:	f04f 30ff 	mov.w	r0, #4294967295
     57c:	4770      	bx	lr
     57e:	bf00      	nop

00000580 <_ZN4mbed14FileSystemLike5mkdirEPKci>:
     580:	f04f 30ff 	mov.w	r0, #4294967295
     584:	4770      	bx	lr
     586:	bf00      	nop

00000588 <_Z4flipv>:
     588:	e92d 4ff0 	stmdb	sp!, {r4, r5, r6, r7, r8, r9, sl, fp, lr}
     58c:	b08b      	sub	sp, #44	; 0x2c
     58e:	a907      	add	r1, sp, #28
     590:	2200      	movs	r2, #0
     592:	1d0b      	adds	r3, r1, #4
     594:	4c4c      	ldr	r4, [pc, #304]	; (6c8 <_Z4flipv+0x140>)
     596:	f843 2b04 	str.w	r2, [r3], #4
     59a:	801a      	strh	r2, [r3, #0]
     59c:	6820      	ldr	r0, [r4, #0]
     59e:	9207      	str	r2, [sp, #28]
     5a0:	f004 fd0c 	bl	4fbc <__aeabi_f2d>
     5a4:	a342      	add	r3, pc, #264	; (adr r3, 6b0 <_Z4flipv+0x128>)
     5a6:	e9d3 2300 	ldrd	r2, r3, [r3]
     5aa:	f004 fba9 	bl	4d00 <__adddf3>
     5ae:	f005 f81b 	bl	55e8 <__aeabi_d2f>
     5b2:	4946      	ldr	r1, [pc, #280]	; (6cc <_Z4flipv+0x144>)
     5b4:	4605      	mov	r5, r0
     5b6:	f005 fb31 	bl	5c1c <__aeabi_fcmpgt>
     5ba:	b100      	cbz	r0, 5be <_Z4flipv+0x36>
     5bc:	2500      	movs	r5, #0
     5be:	4e44      	ldr	r6, [pc, #272]	; (6d0 <_Z4flipv+0x148>)
     5c0:	6025      	str	r5, [r4, #0]
     5c2:	6973      	ldr	r3, [r6, #20]
     5c4:	69b2      	ldr	r2, [r6, #24]
     5c6:	6958      	ldr	r0, [r3, #20]
     5c8:	4210      	tst	r0, r2
     5ca:	d06f      	beq.n	6ac <_Z4flipv+0x124>
     5cc:	61da      	str	r2, [r3, #28]
     5ce:	4628      	mov	r0, r5
     5d0:	f004 fcf4 	bl	4fbc <__aeabi_f2d>
     5d4:	a338      	add	r3, pc, #224	; (adr r3, 6b8 <_Z4flipv+0x130>)
     5d6:	e9d3 2300 	ldrd	r2, r3, [r3]
     5da:	4680      	mov	r8, r0
     5dc:	4689      	mov	r9, r1
     5de:	f004 fd41 	bl	5064 <__aeabi_dmul>
     5e2:	4682      	mov	sl, r0
     5e4:	468b      	mov	fp, r1
     5e6:	f003 fa3f 	bl	3a68 <sin>
     5ea:	4602      	mov	r2, r0
     5ec:	460b      	mov	r3, r1
     5ee:	f004 fb87 	bl	4d00 <__adddf3>
     5f2:	f004 fff9 	bl	55e8 <__aeabi_d2f>
     5f6:	4659      	mov	r1, fp
     5f8:	4607      	mov	r7, r0
     5fa:	4650      	mov	r0, sl
     5fc:	f003 f974 	bl	38e8 <cos>
     600:	f004 fff2 	bl	55e8 <__aeabi_d2f>
     604:	a32e      	add	r3, pc, #184	; (adr r3, 6c0 <_Z4flipv+0x138>)
     606:	e9d3 2300 	ldrd	r2, r3, [r3]
     60a:	4606      	mov	r6, r0
     60c:	4649      	mov	r1, r9
     60e:	4640      	mov	r0, r8
     610:	f004 fd28 	bl	5064 <__aeabi_dmul>
     614:	f003 fa28 	bl	3a68 <sin>
     618:	2200      	movs	r2, #0
     61a:	4b2e      	ldr	r3, [pc, #184]	; (6d4 <_Z4flipv+0x14c>)
     61c:	f004 fd22 	bl	5064 <__aeabi_dmul>
     620:	f004 ffe2 	bl	55e8 <__aeabi_d2f>
     624:	4605      	mov	r5, r0
     626:	4638      	mov	r0, r7
     628:	f004 fcc8 	bl	4fbc <__aeabi_f2d>
     62c:	e9cd 0100 	strd	r0, r1, [sp]
     630:	4630      	mov	r0, r6
     632:	f004 fcc3 	bl	4fbc <__aeabi_f2d>
     636:	e9cd 0102 	strd	r0, r1, [sp, #8]
     63a:	4628      	mov	r0, r5
     63c:	f004 fcbe 	bl	4fbc <__aeabi_f2d>
     640:	4642      	mov	r2, r8
     642:	e9cd 0104 	strd	r0, r1, [sp, #16]
     646:	464b      	mov	r3, r9
     648:	4923      	ldr	r1, [pc, #140]	; (6d8 <_Z4flipv+0x150>)
     64a:	4824      	ldr	r0, [pc, #144]	; (6dc <_Z4flipv+0x154>)
     64c:	f010 ff30 	bl	114b0 <_ZN4mbed6Stream6printfEPKcz>
     650:	f64a 23aa 	movw	r3, #43690	; 0xaaaa
     654:	491d      	ldr	r1, [pc, #116]	; (6cc <_Z4flipv+0x144>)
     656:	6820      	ldr	r0, [r4, #0]
     658:	f8ad 301c 	strh.w	r3, [sp, #28]
     65c:	f005 f922 	bl	58a4 <__aeabi_fmul>
     660:	f005 fae6 	bl	5c30 <__aeabi_f2iz>
     664:	491e      	ldr	r1, [pc, #120]	; (6e0 <_Z4flipv+0x158>)
     666:	f8ad 001e 	strh.w	r0, [sp, #30]
     66a:	4638      	mov	r0, r7
     66c:	f005 f91a 	bl	58a4 <__aeabi_fmul>
     670:	f005 fade 	bl	5c30 <__aeabi_f2iz>
     674:	491a      	ldr	r1, [pc, #104]	; (6e0 <_Z4flipv+0x158>)
     676:	f8ad 0020 	strh.w	r0, [sp, #32]
     67a:	4630      	mov	r0, r6
     67c:	f005 f912 	bl	58a4 <__aeabi_fmul>
     680:	f005 fad6 	bl	5c30 <__aeabi_f2iz>
     684:	4916      	ldr	r1, [pc, #88]	; (6e0 <_Z4flipv+0x158>)
     686:	f8ad 0022 	strh.w	r0, [sp, #34]	; 0x22
     68a:	4628      	mov	r0, r5
     68c:	f005 f90a 	bl	58a4 <__aeabi_fmul>
     690:	f005 face 	bl	5c30 <__aeabi_f2iz>
     694:	4b13      	ldr	r3, [pc, #76]	; (6e4 <_Z4flipv+0x15c>)
     696:	f8ad 0024 	strh.w	r0, [sp, #36]	; 0x24
     69a:	2102      	movs	r1, #2
     69c:	a807      	add	r0, sp, #28
     69e:	2205      	movs	r2, #5
     6a0:	681b      	ldr	r3, [r3, #0]
     6a2:	f006 fa4d 	bl	6b40 <fwrite>
     6a6:	b00b      	add	sp, #44	; 0x2c
     6a8:	e8bd 8ff0 	ldmia.w	sp!, {r4, r5, r6, r7, r8, r9, sl, fp, pc}
     6ac:	619a      	str	r2, [r3, #24]
     6ae:	e78e      	b.n	5ce <_Z4flipv+0x46>
     6b0:	d2f1a9fc 	.word	0xd2f1a9fc
     6b4:	3f60624d 	.word	0x3f60624d
     6b8:	e5604189 	.word	0xe5604189
     6bc:	401922d0 	.word	0x401922d0
     6c0:	e5604189 	.word	0xe5604189
     6c4:	402922d0 	.word	0x402922d0
     6c8:	10000750 	.word	0x10000750
     6cc:	447a0000 	.word	0x447a0000
     6d0:	100006ac 	.word	0x100006ac
     6d4:	3fe00000 	.word	0x3fe00000
     6d8:	0000f2cc 	.word	0x0000f2cc
     6dc:	100006c8 	.word	0x100006c8
     6e0:	42c80000 	.word	0x42c80000
     6e4:	10000720 	.word	0x10000720

000006e8 <main>:
     6e8:	b510      	push	{r4, lr}
     6ea:	4815      	ldr	r0, [pc, #84]	; (740 <main+0x58>)
     6ec:	f44f 2161 	mov.w	r1, #921600	; 0xe1000
     6f0:	f010 fcf8 	bl	110e4 <_ZN4mbed6Serial4baudEi>
     6f4:	4813      	ldr	r0, [pc, #76]	; (744 <main+0x5c>)
     6f6:	4914      	ldr	r1, [pc, #80]	; (748 <main+0x60>)
     6f8:	f005 fd3a 	bl	6170 <fopen>
     6fc:	4b13      	ldr	r3, [pc, #76]	; (74c <main+0x64>)
     6fe:	6018      	str	r0, [r3, #0]
     700:	b1c8      	cbz	r0, 736 <main+0x4e>
     702:	4913      	ldr	r1, [pc, #76]	; (750 <main+0x68>)
     704:	4813      	ldr	r0, [pc, #76]	; (754 <main+0x6c>)
     706:	694c      	ldr	r4, [r1, #20]
     708:	698a      	ldr	r2, [r1, #24]
     70a:	4913      	ldr	r1, [pc, #76]	; (758 <main+0x70>)
     70c:	61a2      	str	r2, [r4, #24]
     70e:	f010 fcd9 	bl	110c4 <_ZN4mbed15FunctionPointer6attachEPFvvE>
     712:	4812      	ldr	r0, [pc, #72]	; (75c <main+0x74>)
     714:	f44f 61fa 	mov.w	r1, #2000	; 0x7d0
     718:	f010 fb00 	bl	10d1c <_ZN4mbed6Ticker5setupEj>
     71c:	4c10      	ldr	r4, [pc, #64]	; (760 <main+0x78>)
     71e:	e003      	b.n	728 <main+0x40>
     720:	61da      	str	r2, [r3, #28]
     722:	4810      	ldr	r0, [pc, #64]	; (764 <main+0x7c>)
     724:	f011 fb76 	bl	11e14 <wait>
     728:	6963      	ldr	r3, [r4, #20]
     72a:	69a2      	ldr	r2, [r4, #24]
     72c:	6958      	ldr	r0, [r3, #20]
     72e:	4210      	tst	r0, r2
     730:	d1f6      	bne.n	720 <main+0x38>
     732:	619a      	str	r2, [r3, #24]
     734:	e7f5      	b.n	722 <main+0x3a>
     736:	490c      	ldr	r1, [pc, #48]	; (768 <main+0x80>)
     738:	4801      	ldr	r0, [pc, #4]	; (740 <main+0x58>)
     73a:	f010 feb9 	bl	114b0 <_ZN4mbed6Stream6printfEPKcz>
     73e:	e7e0      	b.n	702 <main+0x1a>
     740:	100006c8 	.word	0x100006c8
     744:	0000f2ec 	.word	0x0000f2ec
     748:	0000f2fc 	.word	0x0000f2fc
     74c:	10000720 	.word	0x10000720
     750:	100006ac 	.word	0x100006ac
     754:	10000734 	.word	0x10000734
     758:	00000589 	.word	0x00000589
     75c:	10000724 	.word	0x10000724
     760:	10000690 	.word	0x10000690
     764:	3dcccccd 	.word	0x3dcccccd
     768:	0000f300 	.word	0x0000f300

0000076c <_GLOBAL__I_global_time>:
     76c:	e92d 41f0 	stmdb	sp!, {r4, r5, r6, r7, r8, lr}
     770:	4e21      	ldr	r6, [pc, #132]	; (7f8 <_GLOBAL__I_global_time+0x8c>)
     772:	4c22      	ldr	r4, [pc, #136]	; (7fc <_GLOBAL__I_global_time+0x90>)
     774:	2300      	movs	r3, #0
     776:	4d22      	ldr	r5, [pc, #136]	; (800 <_GLOBAL__I_global_time+0x94>)
     778:	4922      	ldr	r1, [pc, #136]	; (804 <_GLOBAL__I_global_time+0x98>)
     77a:	4a23      	ldr	r2, [pc, #140]	; (808 <_GLOBAL__I_global_time+0x9c>)
     77c:	4630      	mov	r0, r6
     77e:	f010 fcc5 	bl	1110c <_ZN4mbed6SerialC1E7PinNameS1_PKc>
     782:	4622      	mov	r2, r4
     784:	4921      	ldr	r1, [pc, #132]	; (80c <_GLOBAL__I_global_time+0xa0>)
     786:	4630      	mov	r0, r6
     788:	f000 f86a 	bl	860 <__aeabi_atexit>
     78c:	4628      	mov	r0, r5
     78e:	f010 fdfb 	bl	11388 <_ZN4mbed10TimerEventC2Ev>
     792:	491f      	ldr	r1, [pc, #124]	; (810 <_GLOBAL__I_global_time+0xa4>)
     794:	4628      	mov	r0, r5
     796:	f8df 80a0 	ldr.w	r8, [pc, #160]	; 838 <_GLOBAL__I_global_time+0xcc>
     79a:	f840 1b10 	str.w	r1, [r0], #16
     79e:	2100      	movs	r1, #0
     7a0:	f010 fc94 	bl	110cc <_ZN4mbed15FunctionPointerC1EPFvvE>
     7a4:	4e1b      	ldr	r6, [pc, #108]	; (814 <_GLOBAL__I_global_time+0xa8>)
     7a6:	4622      	mov	r2, r4
     7a8:	4628      	mov	r0, r5
     7aa:	491b      	ldr	r1, [pc, #108]	; (818 <_GLOBAL__I_global_time+0xac>)
     7ac:	f000 f858 	bl	860 <__aeabi_atexit>
     7b0:	4f1a      	ldr	r7, [pc, #104]	; (81c <_GLOBAL__I_global_time+0xb0>)
     7b2:	2200      	movs	r2, #0
     7b4:	491a      	ldr	r1, [pc, #104]	; (820 <_GLOBAL__I_global_time+0xb4>)
     7b6:	4640      	mov	r0, r8
     7b8:	f00f fffc 	bl	107b4 <_ZN4mbed10DigitalOutC1E7PinNamePKc>
     7bc:	4631      	mov	r1, r6
     7be:	4622      	mov	r2, r4
     7c0:	4640      	mov	r0, r8
     7c2:	f000 f84d 	bl	860 <__aeabi_atexit>
     7c6:	4d17      	ldr	r5, [pc, #92]	; (824 <_GLOBAL__I_global_time+0xb8>)
     7c8:	2200      	movs	r2, #0
     7ca:	4638      	mov	r0, r7
     7cc:	4916      	ldr	r1, [pc, #88]	; (828 <_GLOBAL__I_global_time+0xbc>)
     7ce:	f00f fff1 	bl	107b4 <_ZN4mbed10DigitalOutC1E7PinNamePKc>
     7d2:	4622      	mov	r2, r4
     7d4:	4631      	mov	r1, r6
     7d6:	4638      	mov	r0, r7
     7d8:	f000 f842 	bl	860 <__aeabi_atexit>
     7dc:	4913      	ldr	r1, [pc, #76]	; (82c <_GLOBAL__I_global_time+0xc0>)
     7de:	4628      	mov	r0, r5
     7e0:	f010 fa40 	bl	10c64 <_ZN4mbed4BaseC1EPKc>
     7e4:	4b12      	ldr	r3, [pc, #72]	; (830 <_GLOBAL__I_global_time+0xc4>)
     7e6:	4913      	ldr	r1, [pc, #76]	; (834 <_GLOBAL__I_global_time+0xc8>)
     7e8:	4628      	mov	r0, r5
     7ea:	4622      	mov	r2, r4
     7ec:	602b      	str	r3, [r5, #0]
     7ee:	e8bd 41f0 	ldmia.w	sp!, {r4, r5, r6, r7, r8, lr}
     7f2:	f000 b835 	b.w	860 <__aeabi_atexit>
     7f6:	bf00      	nop
     7f8:	100006c8 	.word	0x100006c8
     7fc:	100000c4 	.word	0x100000c4
     800:	10000724 	.word	0x10000724
     804:	2009c002 	.word	0x2009c002
     808:	2009c003 	.word	0x2009c003
     80c:	0001119d 	.word	0x0001119d
     810:	000124ac 	.word	0x000124ac
     814:	000107f1 	.word	0x000107f1
     818:	00010d57 	.word	0x00010d57
     81c:	100006ac 	.word	0x100006ac
     820:	2009c032 	.word	0x2009c032
     824:	10000754 	.word	0x10000754
     828:	2009c034 	.word	0x2009c034
     82c:	0000f308 	.word	0x0000f308
     830:	00012364 	.word	0x00012364
     834:	00010a05 	.word	0x00010a05
     838:	10000690 	.word	0x10000690

0000083c <Reset_Handler>:
     83c:	4806      	ldr	r0, [pc, #24]	; (858 <ADC_IRQHandler+0x2>)
     83e:	4780      	blx	r0
     840:	4806      	ldr	r0, [pc, #24]	; (85c <ADC_IRQHandler+0x6>)
     842:	4700      	bx	r0

00000844 <NMI_Handler>:
     844:	e7fe      	b.n	844 <NMI_Handler>

00000846 <HardFault_Handler>:
     846:	e7fe      	b.n	846 <HardFault_Handler>

00000848 <MemManage_Handler>:
     848:	e7fe      	b.n	848 <MemManage_Handler>

0000084a <BusFault_Handler>:
     84a:	e7fe      	b.n	84a <BusFault_Handler>

0000084c <UsageFault_Handler>:
     84c:	e7fe      	b.n	84c <UsageFault_Handler>

0000084e <SVC_Handler>:
     84e:	e7fe      	b.n	84e <SVC_Handler>

00000850 <DebugMon_Handler>:
     850:	e7fe      	b.n	850 <DebugMon_Handler>

00000852 <PendSV_Handler>:
     852:	e7fe      	b.n	852 <PendSV_Handler>

00000854 <SysTick_Handler>:
     854:	e7fe      	b.n	854 <SysTick_Handler>

00000856 <ADC_IRQHandler>:
     856:	e7fe      	b.n	856 <ADC_IRQHandler>
     858:	000001cd 	.word	0x000001cd
     85c:	000000c5 	.word	0x000000c5

00000860 <__aeabi_atexit>:
     860:	4603      	mov	r3, r0
     862:	4608      	mov	r0, r1
     864:	4619      	mov	r1, r3
     866:	f005 ba2d 	b.w	5cc4 <__cxa_atexit>

0000086a <_ZNK10__cxxabiv117__class_type_info20__do_find_public_srcEiPKvPKS0_S2_>:
     86a:	9800      	ldr	r0, [sp, #0]
     86c:	4290      	cmp	r0, r2
     86e:	bf14      	ite	ne
     870:	2001      	movne	r0, #1
     872:	2006      	moveq	r0, #6
     874:	4770      	bx	lr

00000876 <_ZNK10__cxxabiv117__class_type_info11__do_upcastEPKS0_PKvRNS0_15__upcast_resultE>:
     876:	b538      	push	{r3, r4, r5, lr}
     878:	4614      	mov	r4, r2
     87a:	461d      	mov	r5, r3
     87c:	f000 f9b5 	bl	bea <_ZNKSt9type_infoeqERKS_>
     880:	b128      	cbz	r0, 88e <_ZNK10__cxxabiv117__class_type_info11__do_upcastEPKS0_PKvRNS0_15__upcast_resultE+0x18>
     882:	2001      	movs	r0, #1
     884:	2308      	movs	r3, #8
     886:	602c      	str	r4, [r5, #0]
     888:	60eb      	str	r3, [r5, #12]
     88a:	3b02      	subs	r3, #2
     88c:	712b      	strb	r3, [r5, #4]
     88e:	bd38      	pop	{r3, r4, r5, pc}

00000890 <_ZNK10__cxxabiv117__class_type_info12__do_dyncastEiNS0_10__sub_kindEPKS0_PKvS3_S5_RNS0_16__dyncast_resultE>:
     890:	e92d 41f0 	stmdb	sp!, {r4, r5, r6, r7, r8, lr}
     894:	4698      	mov	r8, r3
     896:	9f06      	ldr	r7, [sp, #24]
     898:	4604      	mov	r4, r0
     89a:	9b08      	ldr	r3, [sp, #32]
     89c:	4615      	mov	r5, r2
     89e:	9e09      	ldr	r6, [sp, #36]	; 0x24
     8a0:	429f      	cmp	r7, r3
     8a2:	d10c      	bne.n	8be <_ZNK10__cxxabiv117__class_type_info12__do_dyncastEiNS0_10__sub_kindEPKS0_PKvS3_S5_RNS0_16__dyncast_resultE+0x2e>
     8a4:	9907      	ldr	r1, [sp, #28]
     8a6:	f000 f9a0 	bl	bea <_ZNKSt9type_infoeqERKS_>
     8aa:	b140      	cbz	r0, 8be <_ZNK10__cxxabiv117__class_type_info12__do_dyncastEiNS0_10__sub_kindEPKS0_PKvS3_S5_RNS0_16__dyncast_resultE+0x2e>
     8ac:	7175      	strb	r5, [r6, #5]
     8ae:	e003      	b.n	8b8 <_ZNK10__cxxabiv117__class_type_info12__do_dyncastEiNS0_10__sub_kindEPKS0_PKvS3_S5_RNS0_16__dyncast_resultE+0x28>
     8b0:	2301      	movs	r3, #1
     8b2:	6037      	str	r7, [r6, #0]
     8b4:	7135      	strb	r5, [r6, #4]
     8b6:	71b3      	strb	r3, [r6, #6]
     8b8:	2000      	movs	r0, #0
     8ba:	e8bd 81f0 	ldmia.w	sp!, {r4, r5, r6, r7, r8, pc}
     8be:	4620      	mov	r0, r4
     8c0:	4641      	mov	r1, r8
     8c2:	f000 f992 	bl	bea <_ZNKSt9type_infoeqERKS_>
     8c6:	2800      	cmp	r0, #0
     8c8:	d1f2      	bne.n	8b0 <_ZNK10__cxxabiv117__class_type_info12__do_dyncastEiNS0_10__sub_kindEPKS0_PKvS3_S5_RNS0_16__dyncast_resultE+0x20>
     8ca:	e7f5      	b.n	8b8 <_ZNK10__cxxabiv117__class_type_info12__do_dyncastEiNS0_10__sub_kindEPKS0_PKvS3_S5_RNS0_16__dyncast_resultE+0x28>

000008cc <_ZNK10__cxxabiv117__class_type_info10__do_catchEPKSt9type_infoPPvj>:
     8cc:	b5f8      	push	{r3, r4, r5, r6, r7, lr}
     8ce:	4605      	mov	r5, r0
     8d0:	460c      	mov	r4, r1
     8d2:	4616      	mov	r6, r2
     8d4:	461f      	mov	r7, r3
     8d6:	f000 f988 	bl	bea <_ZNKSt9type_infoeqERKS_>
     8da:	b940      	cbnz	r0, 8ee <_ZNK10__cxxabiv117__class_type_info10__do_catchEPKSt9type_infoPPvj+0x22>
     8dc:	2f03      	cmp	r7, #3
     8de:	d807      	bhi.n	8f0 <_ZNK10__cxxabiv117__class_type_info10__do_catchEPKSt9type_infoPPvj+0x24>
     8e0:	6823      	ldr	r3, [r4, #0]
     8e2:	4620      	mov	r0, r4
     8e4:	4629      	mov	r1, r5
     8e6:	4632      	mov	r2, r6
     8e8:	695b      	ldr	r3, [r3, #20]
     8ea:	4798      	blx	r3
     8ec:	bdf8      	pop	{r3, r4, r5, r6, r7, pc}
     8ee:	2001      	movs	r0, #1
     8f0:	bdf8      	pop	{r3, r4, r5, r6, r7, pc}
	...

000008f4 <_ZN10__cxxabiv117__class_type_infoD1Ev>:
     8f4:	4b03      	ldr	r3, [pc, #12]	; (904 <_ZN10__cxxabiv117__class_type_infoD1Ev+0x10>)
     8f6:	b510      	push	{r4, lr}
     8f8:	4604      	mov	r4, r0
     8fa:	6003      	str	r3, [r0, #0]
     8fc:	f000 f95a 	bl	bb4 <_ZNSt9type_infoD1Ev>
     900:	4620      	mov	r0, r4
     902:	bd10      	pop	{r4, pc}
     904:	0000f318 	.word	0x0000f318

00000908 <_ZN10__cxxabiv117__class_type_infoD0Ev>:
     908:	b510      	push	{r4, lr}
     90a:	4604      	mov	r4, r0
     90c:	f7ff fff2 	bl	8f4 <_ZN10__cxxabiv117__class_type_infoD1Ev>
     910:	4620      	mov	r0, r4
     912:	f000 f825 	bl	960 <_ZdlPv>
     916:	4620      	mov	r0, r4
     918:	bd10      	pop	{r4, pc}

0000091a <_ZN10__cxxabiv117__class_type_info15__upcast_resultC1Ei>:
     91a:	2200      	movs	r2, #0
     91c:	6081      	str	r1, [r0, #8]
     91e:	6002      	str	r2, [r0, #0]
     920:	7102      	strb	r2, [r0, #4]
     922:	60c2      	str	r2, [r0, #12]
     924:	4770      	bx	lr

00000926 <_ZNK10__cxxabiv117__class_type_info11__do_upcastEPKS0_PPv>:
     926:	b5f0      	push	{r4, r5, r6, r7, lr}
     928:	4606      	mov	r6, r0
     92a:	b085      	sub	sp, #20
     92c:	460f      	mov	r7, r1
     92e:	4668      	mov	r0, sp
     930:	2110      	movs	r1, #16
     932:	4614      	mov	r4, r2
     934:	f7ff fff1 	bl	91a <_ZN10__cxxabiv117__class_type_info15__upcast_resultC1Ei>
     938:	6833      	ldr	r3, [r6, #0]
     93a:	4630      	mov	r0, r6
     93c:	4639      	mov	r1, r7
     93e:	6822      	ldr	r2, [r4, #0]
     940:	699d      	ldr	r5, [r3, #24]
     942:	466b      	mov	r3, sp
     944:	47a8      	blx	r5
     946:	f89d 3004 	ldrb.w	r3, [sp, #4]
     94a:	f003 0306 	and.w	r3, r3, #6
     94e:	2b06      	cmp	r3, #6
     950:	d103      	bne.n	95a <_ZNK10__cxxabiv117__class_type_info11__do_upcastEPKS0_PPv+0x34>
     952:	9b00      	ldr	r3, [sp, #0]
     954:	2001      	movs	r0, #1
     956:	6023      	str	r3, [r4, #0]
     958:	e000      	b.n	95c <_ZNK10__cxxabiv117__class_type_info11__do_upcastEPKS0_PPv+0x36>
     95a:	2000      	movs	r0, #0
     95c:	b005      	add	sp, #20
     95e:	bdf0      	pop	{r4, r5, r6, r7, pc}

00000960 <_ZdlPv>:
     960:	b108      	cbz	r0, 966 <_ZdlPv+0x6>
     962:	f006 b997 	b.w	6c94 <free>
     966:	4770      	bx	lr

00000968 <_ZdaPv>:
     968:	f7ff bffa 	b.w	960 <_ZdlPv>

0000096c <_ZN10__cxxabiv112_GLOBAL__N_118contained_public_pENS_17__class_type_info10__sub_kindE>:
     96c:	f000 0006 	and.w	r0, r0, #6
     970:	f1a0 0306 	sub.w	r3, r0, #6
     974:	4258      	negs	r0, r3
     976:	eb40 0003 	adc.w	r0, r0, r3
     97a:	4770      	bx	lr

0000097c <_ZN10__cxxabiv112_GLOBAL__N_114adjust_pointerIvEEPKT_PKvi>:
     97c:	1840      	adds	r0, r0, r1
     97e:	4770      	bx	lr

00000980 <_ZN10__cxxabiv117__class_type_info16__dyncast_resultC1Ei>:
     980:	2200      	movs	r2, #0
     982:	6081      	str	r1, [r0, #8]
     984:	6002      	str	r2, [r0, #0]
     986:	7102      	strb	r2, [r0, #4]
     988:	7142      	strb	r2, [r0, #5]
     98a:	7182      	strb	r2, [r0, #6]
     98c:	4770      	bx	lr

0000098e <_ZNK10__cxxabiv117__class_type_info17__find_public_srcEiPKvPKS0_S2_>:
     98e:	b5f7      	push	{r0, r1, r2, r4, r5, r6, r7, lr}
     990:	1e0e      	subs	r6, r1, #0
     992:	9c08      	ldr	r4, [sp, #32]
     994:	db07      	blt.n	9a6 <_ZNK10__cxxabiv117__class_type_info17__find_public_srcEiPKvPKS0_S2_+0x18>
     996:	4610      	mov	r0, r2
     998:	f7ff fff0 	bl	97c <_ZN10__cxxabiv112_GLOBAL__N_114adjust_pointerIvEEPKT_PKvi>
     99c:	4284      	cmp	r4, r0
     99e:	bf14      	ite	ne
     9a0:	2001      	movne	r0, #1
     9a2:	2006      	moveq	r0, #6
     9a4:	e008      	b.n	9b8 <_ZNK10__cxxabiv117__class_type_info17__find_public_srcEiPKvPKS0_S2_+0x2a>
     9a6:	f116 0f02 	cmn.w	r6, #2
     9aa:	d004      	beq.n	9b6 <_ZNK10__cxxabiv117__class_type_info17__find_public_srcEiPKvPKS0_S2_+0x28>
     9ac:	6805      	ldr	r5, [r0, #0]
     9ae:	9400      	str	r4, [sp, #0]
     9b0:	6a2c      	ldr	r4, [r5, #32]
     9b2:	47a0      	blx	r4
     9b4:	e000      	b.n	9b8 <_ZNK10__cxxabiv117__class_type_info17__find_public_srcEiPKvPKS0_S2_+0x2a>
     9b6:	2001      	movs	r0, #1
     9b8:	bdfe      	pop	{r1, r2, r3, r4, r5, r6, r7, pc}

000009ba <__dynamic_cast>:
     9ba:	e92d 47f0 	stmdb	sp!, {r4, r5, r6, r7, r8, r9, sl, lr}
     9be:	461d      	mov	r5, r3
     9c0:	6803      	ldr	r3, [r0, #0]
     9c2:	b088      	sub	sp, #32
     9c4:	4688      	mov	r8, r1
     9c6:	4616      	mov	r6, r2
     9c8:	f1a3 0708 	sub.w	r7, r3, #8
     9cc:	4604      	mov	r4, r0
     9ce:	f853 1c08 	ldr.w	r1, [r3, #-8]
     9d2:	f7ff ffd3 	bl	97c <_ZN10__cxxabiv112_GLOBAL__N_114adjust_pointerIvEEPKT_PKvi>
     9d6:	f8d7 9004 	ldr.w	r9, [r7, #4]
     9da:	af05      	add	r7, sp, #20
     9dc:	2110      	movs	r1, #16
     9de:	4682      	mov	sl, r0
     9e0:	4638      	mov	r0, r7
     9e2:	f7ff ffcd 	bl	980 <_ZN10__cxxabiv117__class_type_info16__dyncast_resultC1Ei>
     9e6:	f8d9 3000 	ldr.w	r3, [r9]
     9ea:	4648      	mov	r0, r9
     9ec:	f8cd a000 	str.w	sl, [sp]
     9f0:	f8cd 8004 	str.w	r8, [sp, #4]
     9f4:	4629      	mov	r1, r5
     9f6:	9402      	str	r4, [sp, #8]
     9f8:	2206      	movs	r2, #6
     9fa:	9703      	str	r7, [sp, #12]
     9fc:	69df      	ldr	r7, [r3, #28]
     9fe:	4633      	mov	r3, r6
     a00:	47b8      	blx	r7
     a02:	9f05      	ldr	r7, [sp, #20]
     a04:	b33f      	cbz	r7, a56 <__dynamic_cast+0x9c>
     a06:	f89d 901a 	ldrb.w	r9, [sp, #26]
     a0a:	4648      	mov	r0, r9
     a0c:	f7ff ffae 	bl	96c <_ZN10__cxxabiv112_GLOBAL__N_118contained_public_pENS_17__class_type_info10__sub_kindE>
     a10:	bb08      	cbnz	r0, a56 <__dynamic_cast+0x9c>
     a12:	f89d a019 	ldrb.w	sl, [sp, #25]
     a16:	f89d 0018 	ldrb.w	r0, [sp, #24]
     a1a:	ea0a 0000 	and.w	r0, sl, r0
     a1e:	f7ff ffa5 	bl	96c <_ZN10__cxxabiv112_GLOBAL__N_118contained_public_pENS_17__class_type_info10__sub_kindE>
     a22:	b9c0      	cbnz	r0, a56 <__dynamic_cast+0x9c>
     a24:	f00a 0a05 	and.w	sl, sl, #5
     a28:	f1ba 0f04 	cmp.w	sl, #4
     a2c:	d012      	beq.n	a54 <__dynamic_cast+0x9a>
     a2e:	f1b9 0f00 	cmp.w	r9, #0
     a32:	d108      	bne.n	a46 <__dynamic_cast+0x8c>
     a34:	4630      	mov	r0, r6
     a36:	4629      	mov	r1, r5
     a38:	463a      	mov	r2, r7
     a3a:	4643      	mov	r3, r8
     a3c:	9400      	str	r4, [sp, #0]
     a3e:	f7ff ffa6 	bl	98e <_ZNK10__cxxabiv117__class_type_info17__find_public_srcEiPKvPKS0_S2_>
     a42:	f88d 001a 	strb.w	r0, [sp, #26]
     a46:	f89d 001a 	ldrb.w	r0, [sp, #26]
     a4a:	f7ff ff8f 	bl	96c <_ZN10__cxxabiv112_GLOBAL__N_118contained_public_pENS_17__class_type_info10__sub_kindE>
     a4e:	b108      	cbz	r0, a54 <__dynamic_cast+0x9a>
     a50:	9f05      	ldr	r7, [sp, #20]
     a52:	e000      	b.n	a56 <__dynamic_cast+0x9c>
     a54:	4607      	mov	r7, r0
     a56:	4638      	mov	r0, r7
     a58:	b008      	add	sp, #32
     a5a:	e8bd 87f0 	ldmia.w	sp!, {r4, r5, r6, r7, r8, r9, sl, pc}
	...

00000a60 <_Znwj>:
     a60:	b510      	push	{r4, lr}
     a62:	2800      	cmp	r0, #0
     a64:	bf14      	ite	ne
     a66:	4604      	movne	r4, r0
     a68:	2401      	moveq	r4, #1
     a6a:	e005      	b.n	a78 <_Znwj+0x18>
     a6c:	4b05      	ldr	r3, [pc, #20]	; (a84 <_Znwj+0x24>)
     a6e:	681b      	ldr	r3, [r3, #0]
     a70:	b90b      	cbnz	r3, a76 <_Znwj+0x16>
     a72:	f005 f903 	bl	5c7c <abort>
     a76:	4798      	blx	r3
     a78:	4620      	mov	r0, r4
     a7a:	f006 f903 	bl	6c84 <malloc>
     a7e:	2800      	cmp	r0, #0
     a80:	d0f4      	beq.n	a6c <_Znwj+0xc>
     a82:	bd10      	pop	{r4, pc}
     a84:	100007a4 	.word	0x100007a4

00000a88 <_Znaj>:
     a88:	f7ff bfea 	b.w	a60 <_Znwj>

00000a8c <__cxa_pure_virtual>:
     a8c:	b508      	push	{r3, lr}
     a8e:	221b      	movs	r2, #27
     a90:	4902      	ldr	r1, [pc, #8]	; (a9c <__cxa_pure_virtual+0x10>)
     a92:	2002      	movs	r0, #2
     a94:	f008 feb6 	bl	9804 <write>
     a98:	f000 fb72 	bl	1180 <_ZSt9terminatev>
     a9c:	0000f36e 	.word	0x0000f36e

00000aa0 <_ZNK10__cxxabiv120__si_class_type_info11__do_upcastEPKNS_17__class_type_infoEPKvRNS1_15__upcast_resultE>:
     aa0:	b5f8      	push	{r3, r4, r5, r6, r7, lr}
     aa2:	4604      	mov	r4, r0
     aa4:	460f      	mov	r7, r1
     aa6:	4616      	mov	r6, r2
     aa8:	461d      	mov	r5, r3
     aaa:	f7ff fee4 	bl	876 <_ZNK10__cxxabiv117__class_type_info11__do_upcastEPKS0_PKvRNS0_15__upcast_resultE>
     aae:	b938      	cbnz	r0, ac0 <_ZNK10__cxxabiv120__si_class_type_info11__do_upcastEPKNS_17__class_type_infoEPKvRNS1_15__upcast_resultE+0x20>
     ab0:	68a0      	ldr	r0, [r4, #8]
     ab2:	4639      	mov	r1, r7
     ab4:	4632      	mov	r2, r6
     ab6:	6803      	ldr	r3, [r0, #0]
     ab8:	699c      	ldr	r4, [r3, #24]
     aba:	462b      	mov	r3, r5
     abc:	47a0      	blx	r4
     abe:	bdf8      	pop	{r3, r4, r5, r6, r7, pc}
     ac0:	2001      	movs	r0, #1
     ac2:	bdf8      	pop	{r3, r4, r5, r6, r7, pc}

00000ac4 <_ZNK10__cxxabiv120__si_class_type_info12__do_dyncastEiNS_17__class_type_info10__sub_kindEPKS1_PKvS4_S6_RNS1_16__dyncast_resultE>:
     ac4:	e92d 4ff0 	stmdb	sp!, {r4, r5, r6, r7, r8, r9, sl, fp, lr}
     ac8:	b085      	sub	sp, #20
     aca:	460c      	mov	r4, r1
     acc:	4619      	mov	r1, r3
     ace:	4605      	mov	r5, r0
     ad0:	4616      	mov	r6, r2
     ad2:	461f      	mov	r7, r3
     ad4:	f8dd 9038 	ldr.w	r9, [sp, #56]	; 0x38
     ad8:	f8dd a040 	ldr.w	sl, [sp, #64]	; 0x40
     adc:	f8dd 8044 	ldr.w	r8, [sp, #68]	; 0x44
     ae0:	f000 f883 	bl	bea <_ZNKSt9type_infoeqERKS_>
     ae4:	4683      	mov	fp, r0
     ae6:	b1b0      	cbz	r0, b16 <_ZNK10__cxxabiv120__si_class_type_info12__do_dyncastEiNS_17__class_type_info10__sub_kindEPKS1_PKvS4_S6_RNS1_16__dyncast_resultE+0x52>
     ae8:	2c00      	cmp	r4, #0
     aea:	f8c8 9000 	str.w	r9, [r8]
     aee:	f888 6004 	strb.w	r6, [r8, #4]
     af2:	db09      	blt.n	b08 <_ZNK10__cxxabiv120__si_class_type_info12__do_dyncastEiNS_17__class_type_info10__sub_kindEPKS1_PKvS4_S6_RNS1_16__dyncast_resultE+0x44>
     af4:	444c      	add	r4, r9
     af6:	45a2      	cmp	sl, r4
     af8:	bf14      	ite	ne
     afa:	f04f 0a01 	movne.w	sl, #1
     afe:	f04f 0a06 	moveq.w	sl, #6
     b02:	f888 a006 	strb.w	sl, [r8, #6]
     b06:	e011      	b.n	b2c <_ZNK10__cxxabiv120__si_class_type_info12__do_dyncastEiNS_17__class_type_info10__sub_kindEPKS1_PKvS4_S6_RNS1_16__dyncast_resultE+0x68>
     b08:	f114 0f02 	cmn.w	r4, #2
     b0c:	d10e      	bne.n	b2c <_ZNK10__cxxabiv120__si_class_type_info12__do_dyncastEiNS_17__class_type_info10__sub_kindEPKS1_PKvS4_S6_RNS1_16__dyncast_resultE+0x68>
     b0e:	2301      	movs	r3, #1
     b10:	f888 3006 	strb.w	r3, [r8, #6]
     b14:	e00a      	b.n	b2c <_ZNK10__cxxabiv120__si_class_type_info12__do_dyncastEiNS_17__class_type_info10__sub_kindEPKS1_PKvS4_S6_RNS1_16__dyncast_resultE+0x68>
     b16:	45d1      	cmp	r9, sl
     b18:	d10c      	bne.n	b34 <_ZNK10__cxxabiv120__si_class_type_info12__do_dyncastEiNS_17__class_type_info10__sub_kindEPKS1_PKvS4_S6_RNS1_16__dyncast_resultE+0x70>
     b1a:	4628      	mov	r0, r5
     b1c:	990f      	ldr	r1, [sp, #60]	; 0x3c
     b1e:	f000 f864 	bl	bea <_ZNKSt9type_infoeqERKS_>
     b22:	b138      	cbz	r0, b34 <_ZNK10__cxxabiv120__si_class_type_info12__do_dyncastEiNS_17__class_type_info10__sub_kindEPKS1_PKvS4_S6_RNS1_16__dyncast_resultE+0x70>
     b24:	f888 6005 	strb.w	r6, [r8, #5]
     b28:	4658      	mov	r0, fp
     b2a:	e000      	b.n	b2e <_ZNK10__cxxabiv120__si_class_type_info12__do_dyncastEiNS_17__class_type_info10__sub_kindEPKS1_PKvS4_S6_RNS1_16__dyncast_resultE+0x6a>
     b2c:	2000      	movs	r0, #0
     b2e:	b005      	add	sp, #20
     b30:	e8bd 8ff0 	ldmia.w	sp!, {r4, r5, r6, r7, r8, r9, sl, fp, pc}
     b34:	68a8      	ldr	r0, [r5, #8]
     b36:	4621      	mov	r1, r4
     b38:	9a0f      	ldr	r2, [sp, #60]	; 0x3c
     b3a:	6803      	ldr	r3, [r0, #0]
     b3c:	9201      	str	r2, [sp, #4]
     b3e:	4632      	mov	r2, r6
     b40:	f8cd 9000 	str.w	r9, [sp]
     b44:	f8cd a008 	str.w	sl, [sp, #8]
     b48:	f8cd 800c 	str.w	r8, [sp, #12]
     b4c:	69dd      	ldr	r5, [r3, #28]
     b4e:	463b      	mov	r3, r7
     b50:	47a8      	blx	r5
     b52:	e7ec      	b.n	b2e <_ZNK10__cxxabiv120__si_class_type_info12__do_dyncastEiNS_17__class_type_info10__sub_kindEPKS1_PKvS4_S6_RNS1_16__dyncast_resultE+0x6a>

00000b54 <_ZNK10__cxxabiv120__si_class_type_info20__do_find_public_srcEiPKvPKNS_17__class_type_infoES2_>:
     b54:	e92d 41f3 	stmdb	sp!, {r0, r1, r4, r5, r6, r7, r8, lr}
     b58:	4604      	mov	r4, r0
     b5a:	f8dd 8020 	ldr.w	r8, [sp, #32]
     b5e:	460d      	mov	r5, r1
     b60:	4617      	mov	r7, r2
     b62:	461e      	mov	r6, r3
     b64:	4590      	cmp	r8, r2
     b66:	d106      	bne.n	b76 <_ZNK10__cxxabiv120__si_class_type_info20__do_find_public_srcEiPKvPKNS_17__class_type_infoES2_+0x22>
     b68:	4619      	mov	r1, r3
     b6a:	f000 f83e 	bl	bea <_ZNKSt9type_infoeqERKS_>
     b6e:	b110      	cbz	r0, b76 <_ZNK10__cxxabiv120__si_class_type_info20__do_find_public_srcEiPKvPKNS_17__class_type_infoES2_+0x22>
     b70:	2006      	movs	r0, #6
     b72:	e8bd 81fc 	ldmia.w	sp!, {r2, r3, r4, r5, r6, r7, r8, pc}
     b76:	68a0      	ldr	r0, [r4, #8]
     b78:	4629      	mov	r1, r5
     b7a:	463a      	mov	r2, r7
     b7c:	6803      	ldr	r3, [r0, #0]
     b7e:	f8cd 8000 	str.w	r8, [sp]
     b82:	6a1c      	ldr	r4, [r3, #32]
     b84:	4633      	mov	r3, r6
     b86:	47a0      	blx	r4
     b88:	e7f3      	b.n	b72 <_ZNK10__cxxabiv120__si_class_type_info20__do_find_public_srcEiPKvPKNS_17__class_type_infoES2_+0x1e>
	...

00000b8c <_ZN10__cxxabiv120__si_class_type_infoD1Ev>:
     b8c:	4b03      	ldr	r3, [pc, #12]	; (b9c <_ZN10__cxxabiv120__si_class_type_infoD1Ev+0x10>)
     b8e:	b510      	push	{r4, lr}
     b90:	4604      	mov	r4, r0
     b92:	6003      	str	r3, [r0, #0]
     b94:	f7ff feae 	bl	8f4 <_ZN10__cxxabiv117__class_type_infoD1Ev>
     b98:	4620      	mov	r0, r4
     b9a:	bd10      	pop	{r4, pc}
     b9c:	0000f398 	.word	0x0000f398

00000ba0 <_ZN10__cxxabiv120__si_class_type_infoD0Ev>:
     ba0:	b510      	push	{r4, lr}
     ba2:	4604      	mov	r4, r0
     ba4:	f7ff fff2 	bl	b8c <_ZN10__cxxabiv120__si_class_type_infoD1Ev>
     ba8:	4620      	mov	r0, r4
     baa:	f7ff fed9 	bl	960 <_ZdlPv>
     bae:	4620      	mov	r0, r4
     bb0:	bd10      	pop	{r4, pc}
	...

00000bb4 <_ZNSt9type_infoD1Ev>:
     bb4:	4b01      	ldr	r3, [pc, #4]	; (bbc <_ZNSt9type_infoD1Ev+0x8>)
     bb6:	6003      	str	r3, [r0, #0]
     bb8:	4770      	bx	lr
     bba:	bf00      	nop
     bbc:	0000f418 	.word	0x0000f418

00000bc0 <_ZNKSt9type_info14__is_pointer_pEv>:
     bc0:	2000      	movs	r0, #0
     bc2:	4770      	bx	lr

00000bc4 <_ZNKSt9type_info15__is_function_pEv>:
     bc4:	2000      	movs	r0, #0
     bc6:	4770      	bx	lr

00000bc8 <_ZNKSt9type_info11__do_upcastEPKN10__cxxabiv117__class_type_infoEPPv>:
     bc8:	2000      	movs	r0, #0
     bca:	4770      	bx	lr

00000bcc <_ZNSt9type_infoD0Ev>:
     bcc:	b510      	push	{r4, lr}
     bce:	4604      	mov	r4, r0
     bd0:	f7ff fff0 	bl	bb4 <_ZNSt9type_infoD1Ev>
     bd4:	4620      	mov	r0, r4
     bd6:	f7ff fec3 	bl	960 <_ZdlPv>
     bda:	4620      	mov	r0, r4
     bdc:	bd10      	pop	{r4, pc}

00000bde <_ZNKSt9type_info4nameEv>:
     bde:	6840      	ldr	r0, [r0, #4]
     be0:	7803      	ldrb	r3, [r0, #0]
     be2:	2b2a      	cmp	r3, #42	; 0x2a
     be4:	bf08      	it	eq
     be6:	3001      	addeq	r0, #1
     be8:	4770      	bx	lr

00000bea <_ZNKSt9type_infoeqERKS_>:
     bea:	4281      	cmp	r1, r0
     bec:	b538      	push	{r3, r4, r5, lr}
     bee:	460d      	mov	r5, r1
     bf0:	d011      	beq.n	c16 <_ZNKSt9type_infoeqERKS_+0x2c>
     bf2:	f7ff fff4 	bl	bde <_ZNKSt9type_info4nameEv>
     bf6:	7803      	ldrb	r3, [r0, #0]
     bf8:	4604      	mov	r4, r0
     bfa:	2b2a      	cmp	r3, #42	; 0x2a
     bfc:	d00d      	beq.n	c1a <_ZNKSt9type_infoeqERKS_+0x30>
     bfe:	4628      	mov	r0, r5
     c00:	f7ff ffed 	bl	bde <_ZNKSt9type_info4nameEv>
     c04:	4601      	mov	r1, r0
     c06:	4620      	mov	r0, r4
     c08:	f006 febd 	bl	7986 <strcmp>
     c0c:	f1d0 0001 	rsbs	r0, r0, #1
     c10:	bf38      	it	cc
     c12:	2000      	movcc	r0, #0
     c14:	bd38      	pop	{r3, r4, r5, pc}
     c16:	2001      	movs	r0, #1
     c18:	bd38      	pop	{r3, r4, r5, pc}
     c1a:	2000      	movs	r0, #0
     c1c:	bd38      	pop	{r3, r4, r5, pc}

00000c1e <_ZNKSt9type_info10__do_catchEPKS_PPvj>:
     c1e:	f7ff bfe4 	b.w	bea <_ZNKSt9type_infoeqERKS_>

00000c22 <__cxa_vec_ctor>:
     c22:	e92d 43f8 	stmdb	sp!, {r3, r4, r5, r6, r7, r8, r9, lr}
     c26:	4604      	mov	r4, r0
     c28:	460d      	mov	r5, r1
     c2a:	4616      	mov	r6, r2
     c2c:	4699      	mov	r9, r3
     c2e:	b143      	cbz	r3, c42 <__cxa_vec_ctor+0x20>
     c30:	4680      	mov	r8, r0
     c32:	2700      	movs	r7, #0
     c34:	e003      	b.n	c3e <__cxa_vec_ctor+0x1c>
     c36:	4640      	mov	r0, r8
     c38:	3701      	adds	r7, #1
     c3a:	47c8      	blx	r9
     c3c:	44b0      	add	r8, r6
     c3e:	42af      	cmp	r7, r5
     c40:	d1f9      	bne.n	c36 <__cxa_vec_ctor+0x14>
     c42:	4620      	mov	r0, r4
     c44:	e8bd 83f8 	ldmia.w	sp!, {r3, r4, r5, r6, r7, r8, r9, pc}

00000c48 <__aeabi_vec_ctor_nocookie_nodtor>:
     c48:	b513      	push	{r0, r1, r4, lr}
     c4a:	460c      	mov	r4, r1
     c4c:	2100      	movs	r1, #0
     c4e:	9100      	str	r1, [sp, #0]
     c50:	4619      	mov	r1, r3
     c52:	4623      	mov	r3, r4
     c54:	f7ff ffe5 	bl	c22 <__cxa_vec_ctor>
     c58:	bd1c      	pop	{r2, r3, r4, pc}

00000c5a <_ZN10__cxxabiv112_GLOBAL__N_111contained_pENS_17__class_type_info10__sub_kindE>:
     c5a:	2803      	cmp	r0, #3
     c5c:	bf94      	ite	ls
     c5e:	2000      	movls	r0, #0
     c60:	2001      	movhi	r0, #1
     c62:	4770      	bx	lr

00000c64 <_ZN10__cxxabiv112_GLOBAL__N_19virtual_pENS_17__class_type_info10__sub_kindE>:
     c64:	f000 0001 	and.w	r0, r0, #1
     c68:	4770      	bx	lr

00000c6a <_ZN10__cxxabiv112_GLOBAL__N_114adjust_pointerIvEEPKT_PKvi>:
     c6a:	1840      	adds	r0, r0, r1
     c6c:	4770      	bx	lr

00000c6e <_ZN10__cxxabiv112_GLOBAL__N_115convert_to_baseEPKvbi>:
     c6e:	b109      	cbz	r1, c74 <_ZN10__cxxabiv112_GLOBAL__N_115convert_to_baseEPKvbi+0x6>
     c70:	6803      	ldr	r3, [r0, #0]
     c72:	589a      	ldr	r2, [r3, r2]
     c74:	4611      	mov	r1, r2
     c76:	f7ff bff8 	b.w	c6a <_ZN10__cxxabiv112_GLOBAL__N_114adjust_pointerIvEEPKT_PKvi>
	...

00000c7c <_ZN10__cxxabiv121__vmi_class_type_infoD1Ev>:
     c7c:	4b03      	ldr	r3, [pc, #12]	; (c8c <_ZN10__cxxabiv121__vmi_class_type_infoD1Ev+0x10>)
     c7e:	b510      	push	{r4, lr}
     c80:	4604      	mov	r4, r0
     c82:	6003      	str	r3, [r0, #0]
     c84:	f7ff fe36 	bl	8f4 <_ZN10__cxxabiv117__class_type_infoD1Ev>
     c88:	4620      	mov	r0, r4
     c8a:	bd10      	pop	{r4, pc}
     c8c:	0000f470 	.word	0x0000f470

00000c90 <_ZN10__cxxabiv121__vmi_class_type_infoD0Ev>:
     c90:	b510      	push	{r4, lr}
     c92:	4604      	mov	r4, r0
     c94:	f7ff fff2 	bl	c7c <_ZN10__cxxabiv121__vmi_class_type_infoD1Ev>
     c98:	4620      	mov	r0, r4
     c9a:	f7ff fe61 	bl	960 <_ZdlPv>
     c9e:	4620      	mov	r0, r4
     ca0:	bd10      	pop	{r4, pc}

00000ca2 <_ZNK10__cxxabiv122__base_class_type_info14__is_virtual_pEv>:
     ca2:	6840      	ldr	r0, [r0, #4]
     ca4:	f000 0001 	and.w	r0, r0, #1
     ca8:	4770      	bx	lr

00000caa <_ZNK10__cxxabiv122__base_class_type_info13__is_public_pEv>:
     caa:	6840      	ldr	r0, [r0, #4]
     cac:	f3c0 0040 	ubfx	r0, r0, #1, #1
     cb0:	4770      	bx	lr

00000cb2 <_ZNK10__cxxabiv122__base_class_type_info8__offsetEv>:
     cb2:	6840      	ldr	r0, [r0, #4]
     cb4:	1200      	asrs	r0, r0, #8
     cb6:	4770      	bx	lr

00000cb8 <_ZNK10__cxxabiv121__vmi_class_type_info20__do_find_public_srcEiPKvPKNS_17__class_type_infoES2_>:
     cb8:	e92d 4ff7 	stmdb	sp!, {r0, r1, r2, r4, r5, r6, r7, r8, r9, sl, fp, lr}
     cbc:	468b      	mov	fp, r1
     cbe:	990c      	ldr	r1, [sp, #48]	; 0x30
     cc0:	4605      	mov	r5, r0
     cc2:	4692      	mov	sl, r2
     cc4:	4699      	mov	r9, r3
     cc6:	428a      	cmp	r2, r1
     cc8:	d13b      	bne.n	d42 <_ZNK10__cxxabiv121__vmi_class_type_info20__do_find_public_srcEiPKvPKNS_17__class_type_infoES2_+0x8a>
     cca:	4619      	mov	r1, r3
     ccc:	f7ff ff8d 	bl	bea <_ZNKSt9type_infoeqERKS_>
     cd0:	2800      	cmp	r0, #0
     cd2:	d132      	bne.n	d3a <_ZNK10__cxxabiv121__vmi_class_type_info20__do_find_public_srcEiPKvPKNS_17__class_type_infoES2_+0x82>
     cd4:	e035      	b.n	d42 <_ZNK10__cxxabiv121__vmi_class_type_info20__do_find_public_srcEiPKvPKNS_17__class_type_infoES2_+0x8a>
     cd6:	3c01      	subs	r4, #1
     cd8:	1ca6      	adds	r6, r4, #2
     cda:	eb05 06c6 	add.w	r6, r5, r6, lsl #3
     cde:	4630      	mov	r0, r6
     ce0:	f7ff ffe3 	bl	caa <_ZNK10__cxxabiv122__base_class_type_info13__is_public_pEv>
     ce4:	b318      	cbz	r0, d2e <_ZNK10__cxxabiv121__vmi_class_type_info20__do_find_public_srcEiPKvPKNS_17__class_type_infoES2_+0x76>
     ce6:	4630      	mov	r0, r6
     ce8:	f7ff ffe3 	bl	cb2 <_ZNK10__cxxabiv122__base_class_type_info8__offsetEv>
     cec:	4607      	mov	r7, r0
     cee:	4630      	mov	r0, r6
     cf0:	f7ff ffd7 	bl	ca2 <_ZNK10__cxxabiv122__base_class_type_info14__is_virtual_pEv>
     cf4:	4606      	mov	r6, r0
     cf6:	b110      	cbz	r0, cfe <_ZNK10__cxxabiv121__vmi_class_type_info20__do_find_public_srcEiPKvPKNS_17__class_type_infoES2_+0x46>
     cf8:	f11b 0f03 	cmn.w	fp, #3
     cfc:	d017      	beq.n	d2e <_ZNK10__cxxabiv121__vmi_class_type_info20__do_find_public_srcEiPKvPKNS_17__class_type_infoES2_+0x76>
     cfe:	463a      	mov	r2, r7
     d00:	4631      	mov	r1, r6
     d02:	4650      	mov	r0, sl
     d04:	f7ff ffb3 	bl	c6e <_ZN10__cxxabiv112_GLOBAL__N_115convert_to_baseEPKvbi>
     d08:	990c      	ldr	r1, [sp, #48]	; 0x30
     d0a:	4602      	mov	r2, r0
     d0c:	f858 0c08 	ldr.w	r0, [r8, #-8]
     d10:	6803      	ldr	r3, [r0, #0]
     d12:	9100      	str	r1, [sp, #0]
     d14:	4659      	mov	r1, fp
     d16:	6a1f      	ldr	r7, [r3, #32]
     d18:	464b      	mov	r3, r9
     d1a:	47b8      	blx	r7
     d1c:	4607      	mov	r7, r0
     d1e:	f7ff ff9c 	bl	c5a <_ZN10__cxxabiv112_GLOBAL__N_111contained_pENS_17__class_type_info10__sub_kindE>
     d22:	b120      	cbz	r0, d2e <_ZNK10__cxxabiv121__vmi_class_type_info20__do_find_public_srcEiPKvPKNS_17__class_type_infoES2_+0x76>
     d24:	b156      	cbz	r6, d3c <_ZNK10__cxxabiv121__vmi_class_type_info20__do_find_public_srcEiPKvPKNS_17__class_type_infoES2_+0x84>
     d26:	f047 0701 	orr.w	r7, r7, #1
     d2a:	b2ff      	uxtb	r7, r7
     d2c:	e006      	b.n	d3c <_ZNK10__cxxabiv121__vmi_class_type_info20__do_find_public_srcEiPKvPKNS_17__class_type_infoES2_+0x84>
     d2e:	f1a8 0808 	sub.w	r8, r8, #8
     d32:	2c00      	cmp	r4, #0
     d34:	d1cf      	bne.n	cd6 <_ZNK10__cxxabiv121__vmi_class_type_info20__do_find_public_srcEiPKvPKNS_17__class_type_infoES2_+0x1e>
     d36:	2701      	movs	r7, #1
     d38:	e000      	b.n	d3c <_ZNK10__cxxabiv121__vmi_class_type_info20__do_find_public_srcEiPKvPKNS_17__class_type_infoES2_+0x84>
     d3a:	2706      	movs	r7, #6
     d3c:	4638      	mov	r0, r7
     d3e:	e8bd 8ffe 	ldmia.w	sp!, {r1, r2, r3, r4, r5, r6, r7, r8, r9, sl, fp, pc}
     d42:	68ec      	ldr	r4, [r5, #12]
     d44:	f104 0802 	add.w	r8, r4, #2
     d48:	eb05 08c8 	add.w	r8, r5, r8, lsl #3
     d4c:	e7f1      	b.n	d32 <_ZNK10__cxxabiv121__vmi_class_type_info20__do_find_public_srcEiPKvPKNS_17__class_type_infoES2_+0x7a>

00000d4e <_ZNK10__cxxabiv121__vmi_class_type_info11__do_upcastEPKNS_17__class_type_infoEPKvRNS1_15__upcast_resultE>:
     d4e:	e92d 4ff0 	stmdb	sp!, {r4, r5, r6, r7, r8, r9, sl, fp, lr}
     d52:	b089      	sub	sp, #36	; 0x24
     d54:	4605      	mov	r5, r0
     d56:	4692      	mov	sl, r2
     d58:	9103      	str	r1, [sp, #12]
     d5a:	461c      	mov	r4, r3
     d5c:	f7ff fd8b 	bl	876 <_ZNK10__cxxabiv117__class_type_info11__do_upcastEPKS0_PKvRNS0_15__upcast_resultE>
     d60:	2800      	cmp	r0, #0
     d62:	f040 808d 	bne.w	e80 <_ZNK10__cxxabiv121__vmi_class_type_info11__do_upcastEPKNS_17__class_type_infoEPKvRNS1_15__upcast_resultE+0x132>
     d66:	f8d4 9008 	ldr.w	r9, [r4, #8]
     d6a:	f8d5 800c 	ldr.w	r8, [r5, #12]
     d6e:	f019 0f10 	tst.w	r9, #16
     d72:	f108 0602 	add.w	r6, r8, #2
     d76:	bf18      	it	ne
     d78:	f8d5 9008 	ldrne.w	r9, [r5, #8]
     d7c:	eb05 06c6 	add.w	r6, r5, r6, lsl #3
     d80:	e076      	b.n	e70 <_ZNK10__cxxabiv121__vmi_class_type_info11__do_upcastEPKNS_17__class_type_infoEPKvRNS1_15__upcast_resultE+0x122>
     d82:	4649      	mov	r1, r9
     d84:	f108 38ff 	add.w	r8, r8, #4294967295
     d88:	a804      	add	r0, sp, #16
     d8a:	f7ff fdc6 	bl	91a <_ZN10__cxxabiv117__class_type_info15__upcast_resultC1Ei>
     d8e:	f108 0302 	add.w	r3, r8, #2
     d92:	eb05 03c3 	add.w	r3, r5, r3, lsl #3
     d96:	9301      	str	r3, [sp, #4]
     d98:	4618      	mov	r0, r3
     d9a:	f7ff ff8a 	bl	cb2 <_ZNK10__cxxabiv122__base_class_type_info8__offsetEv>
     d9e:	9b01      	ldr	r3, [sp, #4]
     da0:	4607      	mov	r7, r0
     da2:	4618      	mov	r0, r3
     da4:	f7ff ff7d 	bl	ca2 <_ZNK10__cxxabiv122__base_class_type_info14__is_virtual_pEv>
     da8:	9b01      	ldr	r3, [sp, #4]
     daa:	4683      	mov	fp, r0
     dac:	4618      	mov	r0, r3
     dae:	f7ff ff7c 	bl	caa <_ZNK10__cxxabiv122__base_class_type_info13__is_public_pEv>
     db2:	9002      	str	r0, [sp, #8]
     db4:	b910      	cbnz	r0, dbc <_ZNK10__cxxabiv121__vmi_class_type_info11__do_upcastEPKNS_17__class_type_infoEPKvRNS1_15__upcast_resultE+0x6e>
     db6:	f019 0f01 	tst.w	r9, #1
     dba:	d058      	beq.n	e6e <_ZNK10__cxxabiv121__vmi_class_type_info11__do_upcastEPKNS_17__class_type_infoEPKvRNS1_15__upcast_resultE+0x120>
     dbc:	f1ba 0f00 	cmp.w	sl, #0
     dc0:	d006      	beq.n	dd0 <_ZNK10__cxxabiv121__vmi_class_type_info11__do_upcastEPKNS_17__class_type_infoEPKvRNS1_15__upcast_resultE+0x82>
     dc2:	463a      	mov	r2, r7
     dc4:	4650      	mov	r0, sl
     dc6:	4659      	mov	r1, fp
     dc8:	f7ff ff51 	bl	c6e <_ZN10__cxxabiv112_GLOBAL__N_115convert_to_baseEPKvbi>
     dcc:	4602      	mov	r2, r0
     dce:	e000      	b.n	dd2 <_ZNK10__cxxabiv121__vmi_class_type_info11__do_upcastEPKNS_17__class_type_infoEPKvRNS1_15__upcast_resultE+0x84>
     dd0:	4652      	mov	r2, sl
     dd2:	f856 0c08 	ldr.w	r0, [r6, #-8]
     dd6:	9903      	ldr	r1, [sp, #12]
     dd8:	6803      	ldr	r3, [r0, #0]
     dda:	699f      	ldr	r7, [r3, #24]
     ddc:	ab04      	add	r3, sp, #16
     dde:	47b8      	blx	r7
     de0:	2800      	cmp	r0, #0
     de2:	d044      	beq.n	e6e <_ZNK10__cxxabiv121__vmi_class_type_info11__do_upcastEPKNS_17__class_type_infoEPKvRNS1_15__upcast_resultE+0x120>
     de4:	9b07      	ldr	r3, [sp, #28]
     de6:	2b08      	cmp	r3, #8
     de8:	d105      	bne.n	df6 <_ZNK10__cxxabiv121__vmi_class_type_info11__do_upcastEPKNS_17__class_type_infoEPKvRNS1_15__upcast_resultE+0xa8>
     dea:	f1bb 0f00 	cmp.w	fp, #0
     dee:	d002      	beq.n	df6 <_ZNK10__cxxabiv121__vmi_class_type_info11__do_upcastEPKNS_17__class_type_infoEPKvRNS1_15__upcast_resultE+0xa8>
     df0:	f856 3c08 	ldr.w	r3, [r6, #-8]
     df4:	9307      	str	r3, [sp, #28]
     df6:	f89d 7014 	ldrb.w	r7, [sp, #20]
     dfa:	4638      	mov	r0, r7
     dfc:	f7ff ff2d 	bl	c5a <_ZN10__cxxabiv112_GLOBAL__N_111contained_pENS_17__class_type_info10__sub_kindE>
     e00:	b128      	cbz	r0, e0e <_ZNK10__cxxabiv121__vmi_class_type_info11__do_upcastEPKNS_17__class_type_infoEPKvRNS1_15__upcast_resultE+0xc0>
     e02:	9b02      	ldr	r3, [sp, #8]
     e04:	b91b      	cbnz	r3, e0e <_ZNK10__cxxabiv121__vmi_class_type_info11__do_upcastEPKNS_17__class_type_infoEPKvRNS1_15__upcast_resultE+0xc0>
     e06:	f027 0702 	bic.w	r7, r7, #2
     e0a:	f88d 7014 	strb.w	r7, [sp, #20]
     e0e:	68e1      	ldr	r1, [r4, #12]
     e10:	b9c9      	cbnz	r1, e46 <_ZNK10__cxxabiv121__vmi_class_type_info11__do_upcastEPKNS_17__class_type_infoEPKvRNS1_15__upcast_resultE+0xf8>
     e12:	ab04      	add	r3, sp, #16
     e14:	cb0f      	ldmia	r3, {r0, r1, r2, r3}
     e16:	e884 000f 	stmia.w	r4, {r0, r1, r2, r3}
     e1a:	7927      	ldrb	r7, [r4, #4]
     e1c:	4638      	mov	r0, r7
     e1e:	f7ff ff1c 	bl	c5a <_ZN10__cxxabiv112_GLOBAL__N_111contained_pENS_17__class_type_info10__sub_kindE>
     e22:	2800      	cmp	r0, #0
     e24:	d02c      	beq.n	e80 <_ZNK10__cxxabiv121__vmi_class_type_info11__do_upcastEPKNS_17__class_type_infoEPKvRNS1_15__upcast_resultE+0x132>
     e26:	f017 0f02 	tst.w	r7, #2
     e2a:	d003      	beq.n	e34 <_ZNK10__cxxabiv121__vmi_class_type_info11__do_upcastEPKNS_17__class_type_infoEPKvRNS1_15__upcast_resultE+0xe6>
     e2c:	68ab      	ldr	r3, [r5, #8]
     e2e:	f013 0f01 	tst.w	r3, #1
     e32:	e006      	b.n	e42 <_ZNK10__cxxabiv121__vmi_class_type_info11__do_upcastEPKNS_17__class_type_infoEPKvRNS1_15__upcast_resultE+0xf4>
     e34:	4638      	mov	r0, r7
     e36:	f7ff ff15 	bl	c64 <_ZN10__cxxabiv112_GLOBAL__N_19virtual_pENS_17__class_type_info10__sub_kindE>
     e3a:	b308      	cbz	r0, e80 <_ZNK10__cxxabiv121__vmi_class_type_info11__do_upcastEPKNS_17__class_type_infoEPKvRNS1_15__upcast_resultE+0x132>
     e3c:	68ab      	ldr	r3, [r5, #8]
     e3e:	f013 0f02 	tst.w	r3, #2
     e42:	d114      	bne.n	e6e <_ZNK10__cxxabiv121__vmi_class_type_info11__do_upcastEPKNS_17__class_type_infoEPKvRNS1_15__upcast_resultE+0x120>
     e44:	e01c      	b.n	e80 <_ZNK10__cxxabiv121__vmi_class_type_info11__do_upcastEPKNS_17__class_type_infoEPKvRNS1_15__upcast_resultE+0x132>
     e46:	6823      	ldr	r3, [r4, #0]
     e48:	9a04      	ldr	r2, [sp, #16]
     e4a:	4293      	cmp	r3, r2
     e4c:	d003      	beq.n	e56 <_ZNK10__cxxabiv121__vmi_class_type_info11__do_upcastEPKNS_17__class_type_infoEPKvRNS1_15__upcast_resultE+0x108>
     e4e:	2300      	movs	r3, #0
     e50:	6023      	str	r3, [r4, #0]
     e52:	3302      	adds	r3, #2
     e54:	e009      	b.n	e6a <_ZNK10__cxxabiv121__vmi_class_type_info11__do_upcastEPKNS_17__class_type_infoEPKvRNS1_15__upcast_resultE+0x11c>
     e56:	b9bb      	cbnz	r3, e88 <_ZNK10__cxxabiv121__vmi_class_type_info11__do_upcastEPKNS_17__class_type_infoEPKvRNS1_15__upcast_resultE+0x13a>
     e58:	9807      	ldr	r0, [sp, #28]
     e5a:	2808      	cmp	r0, #8
     e5c:	d004      	beq.n	e68 <_ZNK10__cxxabiv121__vmi_class_type_info11__do_upcastEPKNS_17__class_type_infoEPKvRNS1_15__upcast_resultE+0x11a>
     e5e:	2908      	cmp	r1, #8
     e60:	d002      	beq.n	e68 <_ZNK10__cxxabiv121__vmi_class_type_info11__do_upcastEPKNS_17__class_type_infoEPKvRNS1_15__upcast_resultE+0x11a>
     e62:	f7ff fec2 	bl	bea <_ZNKSt9type_infoeqERKS_>
     e66:	b978      	cbnz	r0, e88 <_ZNK10__cxxabiv121__vmi_class_type_info11__do_upcastEPKNS_17__class_type_infoEPKvRNS1_15__upcast_resultE+0x13a>
     e68:	2302      	movs	r3, #2
     e6a:	7123      	strb	r3, [r4, #4]
     e6c:	e008      	b.n	e80 <_ZNK10__cxxabiv121__vmi_class_type_info11__do_upcastEPKNS_17__class_type_infoEPKvRNS1_15__upcast_resultE+0x132>
     e6e:	3e08      	subs	r6, #8
     e70:	f1b8 0f00 	cmp.w	r8, #0
     e74:	d185      	bne.n	d82 <_ZNK10__cxxabiv121__vmi_class_type_info11__do_upcastEPKNS_17__class_type_infoEPKvRNS1_15__upcast_resultE+0x34>
     e76:	7920      	ldrb	r0, [r4, #4]
     e78:	3800      	subs	r0, #0
     e7a:	bf18      	it	ne
     e7c:	2001      	movne	r0, #1
     e7e:	e000      	b.n	e82 <_ZNK10__cxxabiv121__vmi_class_type_info11__do_upcastEPKNS_17__class_type_infoEPKvRNS1_15__upcast_resultE+0x134>
     e80:	2001      	movs	r0, #1
     e82:	b009      	add	sp, #36	; 0x24
     e84:	e8bd 8ff0 	ldmia.w	sp!, {r4, r5, r6, r7, r8, r9, sl, fp, pc}
     e88:	7923      	ldrb	r3, [r4, #4]
     e8a:	f89d 2014 	ldrb.w	r2, [sp, #20]
     e8e:	ea42 0303 	orr.w	r3, r2, r3
     e92:	7123      	strb	r3, [r4, #4]
     e94:	e7eb      	b.n	e6e <_ZNK10__cxxabiv121__vmi_class_type_info11__do_upcastEPKNS_17__class_type_infoEPKvRNS1_15__upcast_resultE+0x120>

00000e96 <_ZNK10__cxxabiv121__vmi_class_type_info12__do_dyncastEiNS_17__class_type_info10__sub_kindEPKS1_PKvS4_S6_RNS1_16__dyncast_resultE>:
     e96:	e92d 4ff0 	stmdb	sp!, {r4, r5, r6, r7, r8, r9, sl, fp, lr}
     e9a:	b091      	sub	sp, #68	; 0x44
     e9c:	4607      	mov	r7, r0
     e9e:	4689      	mov	r9, r1
     ea0:	9c1d      	ldr	r4, [sp, #116]	; 0x74
     ea2:	9307      	str	r3, [sp, #28]
     ea4:	9206      	str	r2, [sp, #24]
     ea6:	68a3      	ldr	r3, [r4, #8]
     ea8:	9a1a      	ldr	r2, [sp, #104]	; 0x68
     eaa:	f013 0f10 	tst.w	r3, #16
     eae:	bf1c      	itt	ne
     eb0:	6883      	ldrne	r3, [r0, #8]
     eb2:	60a3      	strne	r3, [r4, #8]
     eb4:	9b1c      	ldr	r3, [sp, #112]	; 0x70
     eb6:	429a      	cmp	r2, r3
     eb8:	f040 813e 	bne.w	1138 <_ZNK10__cxxabiv121__vmi_class_type_info12__do_dyncastEiNS_17__class_type_info10__sub_kindEPKS1_PKvS4_S6_RNS1_16__dyncast_resultE+0x2a2>
     ebc:	991b      	ldr	r1, [sp, #108]	; 0x6c
     ebe:	f7ff fe94 	bl	bea <_ZNKSt9type_infoeqERKS_>
     ec2:	2800      	cmp	r0, #0
     ec4:	f000 8138 	beq.w	1138 <_ZNK10__cxxabiv121__vmi_class_type_info12__do_dyncastEiNS_17__class_type_info10__sub_kindEPKS1_PKvS4_S6_RNS1_16__dyncast_resultE+0x2a2>
     ec8:	9a06      	ldr	r2, [sp, #24]
     eca:	7162      	strb	r2, [r4, #5]
     ecc:	e12e      	b.n	112c <_ZNK10__cxxabiv121__vmi_class_type_info12__do_dyncastEiNS_17__class_type_info10__sub_kindEPKS1_PKvS4_S6_RNS1_16__dyncast_resultE+0x296>
     ece:	9b1a      	ldr	r3, [sp, #104]	; 0x68
     ed0:	f1b9 0f00 	cmp.w	r9, #0
     ed4:	9a06      	ldr	r2, [sp, #24]
     ed6:	6023      	str	r3, [r4, #0]
     ed8:	7122      	strb	r2, [r4, #4]
     eda:	db0a      	blt.n	ef2 <_ZNK10__cxxabiv121__vmi_class_type_info12__do_dyncastEiNS_17__class_type_info10__sub_kindEPKS1_PKvS4_S6_RNS1_16__dyncast_resultE+0x5c>
     edc:	4618      	mov	r0, r3
     ede:	4649      	mov	r1, r9
     ee0:	f7ff fec3 	bl	c6a <_ZN10__cxxabiv112_GLOBAL__N_114adjust_pointerIvEEPKT_PKvi>
     ee4:	9b1c      	ldr	r3, [sp, #112]	; 0x70
     ee6:	4283      	cmp	r3, r0
     ee8:	bf14      	ite	ne
     eea:	2001      	movne	r0, #1
     eec:	2006      	moveq	r0, #6
     eee:	71a0      	strb	r0, [r4, #6]
     ef0:	e11c      	b.n	112c <_ZNK10__cxxabiv121__vmi_class_type_info12__do_dyncastEiNS_17__class_type_info10__sub_kindEPKS1_PKvS4_S6_RNS1_16__dyncast_resultE+0x296>
     ef2:	f119 0f02 	cmn.w	r9, #2
     ef6:	f040 8119 	bne.w	112c <_ZNK10__cxxabiv121__vmi_class_type_info12__do_dyncastEiNS_17__class_type_info10__sub_kindEPKS1_PKvS4_S6_RNS1_16__dyncast_resultE+0x296>
     efa:	2301      	movs	r3, #1
     efc:	71a3      	strb	r3, [r4, #6]
     efe:	e115      	b.n	112c <_ZNK10__cxxabiv121__vmi_class_type_info12__do_dyncastEiNS_17__class_type_info10__sub_kindEPKS1_PKvS4_S6_RNS1_16__dyncast_resultE+0x296>
     f00:	f1b9 0f00 	cmp.w	r9, #0
     f04:	db04      	blt.n	f10 <_ZNK10__cxxabiv121__vmi_class_type_info12__do_dyncastEiNS_17__class_type_info10__sub_kindEPKS1_PKvS4_S6_RNS1_16__dyncast_resultE+0x7a>
     f06:	981c      	ldr	r0, [sp, #112]	; 0x70
     f08:	f1c9 0100 	rsb	r1, r9, #0
     f0c:	f7ff fead 	bl	c6a <_ZN10__cxxabiv112_GLOBAL__N_114adjust_pointerIvEEPKT_PKvi>
     f10:	f04f 0800 	mov.w	r8, #0
     f14:	2201      	movs	r2, #1
     f16:	9008      	str	r0, [sp, #32]
     f18:	f8cd 802c 	str.w	r8, [sp, #44]	; 0x2c
     f1c:	9209      	str	r2, [sp, #36]	; 0x24
     f1e:	e001      	b.n	f24 <_ZNK10__cxxabiv121__vmi_class_type_info12__do_dyncastEiNS_17__class_type_info10__sub_kindEPKS1_PKvS4_S6_RNS1_16__dyncast_resultE+0x8e>
     f20:	f8cd a024 	str.w	sl, [sp, #36]	; 0x24
     f24:	f8d7 a00c 	ldr.w	sl, [r7, #12]
     f28:	f10a 0302 	add.w	r3, sl, #2
     f2c:	eb07 03c3 	add.w	r3, r7, r3, lsl #3
     f30:	930a      	str	r3, [sp, #40]	; 0x28
     f32:	e0f0      	b.n	1116 <_ZNK10__cxxabiv121__vmi_class_type_info12__do_dyncastEiNS_17__class_type_info10__sub_kindEPKS1_PKvS4_S6_RNS1_16__dyncast_resultE+0x280>
     f34:	f10a 3aff 	add.w	sl, sl, #4294967295
     f38:	68a1      	ldr	r1, [r4, #8]
     f3a:	f10a 0502 	add.w	r5, sl, #2
     f3e:	a80d      	add	r0, sp, #52	; 0x34
     f40:	f7ff fd1e 	bl	980 <_ZN10__cxxabiv117__class_type_info16__dyncast_resultC1Ei>
     f44:	eb07 05c5 	add.w	r5, r7, r5, lsl #3
     f48:	4628      	mov	r0, r5
     f4a:	f7ff feb2 	bl	cb2 <_ZNK10__cxxabiv122__base_class_type_info8__offsetEv>
     f4e:	4683      	mov	fp, r0
     f50:	4628      	mov	r0, r5
     f52:	f7ff fea6 	bl	ca2 <_ZNK10__cxxabiv122__base_class_type_info14__is_virtual_pEv>
     f56:	4601      	mov	r1, r0
     f58:	b118      	cbz	r0, f62 <_ZNK10__cxxabiv121__vmi_class_type_info12__do_dyncastEiNS_17__class_type_info10__sub_kindEPKS1_PKvS4_S6_RNS1_16__dyncast_resultE+0xcc>
     f5a:	9b06      	ldr	r3, [sp, #24]
     f5c:	f043 0601 	orr.w	r6, r3, #1
     f60:	e000      	b.n	f64 <_ZNK10__cxxabiv121__vmi_class_type_info12__do_dyncastEiNS_17__class_type_info10__sub_kindEPKS1_PKvS4_S6_RNS1_16__dyncast_resultE+0xce>
     f62:	9e06      	ldr	r6, [sp, #24]
     f64:	465a      	mov	r2, fp
     f66:	981a      	ldr	r0, [sp, #104]	; 0x68
     f68:	f7ff fe81 	bl	c6e <_ZN10__cxxabiv112_GLOBAL__N_115convert_to_baseEPKvbi>
     f6c:	9a08      	ldr	r2, [sp, #32]
     f6e:	4683      	mov	fp, r0
     f70:	b13a      	cbz	r2, f82 <_ZNK10__cxxabiv121__vmi_class_type_info12__do_dyncastEiNS_17__class_type_info10__sub_kindEPKS1_PKvS4_S6_RNS1_16__dyncast_resultE+0xec>
     f72:	4290      	cmp	r0, r2
     f74:	9a09      	ldr	r2, [sp, #36]	; 0x24
     f76:	bf94      	ite	ls
     f78:	2300      	movls	r3, #0
     f7a:	2301      	movhi	r3, #1
     f7c:	4293      	cmp	r3, r2
     f7e:	f000 80c5 	beq.w	110c <_ZNK10__cxxabiv121__vmi_class_type_info12__do_dyncastEiNS_17__class_type_info10__sub_kindEPKS1_PKvS4_S6_RNS1_16__dyncast_resultE+0x276>
     f82:	4628      	mov	r0, r5
     f84:	f7ff fe91 	bl	caa <_ZNK10__cxxabiv122__base_class_type_info13__is_public_pEv>
     f88:	b948      	cbnz	r0, f9e <_ZNK10__cxxabiv121__vmi_class_type_info12__do_dyncastEiNS_17__class_type_info10__sub_kindEPKS1_PKvS4_S6_RNS1_16__dyncast_resultE+0x108>
     f8a:	f119 0f02 	cmn.w	r9, #2
     f8e:	d104      	bne.n	f9a <_ZNK10__cxxabiv121__vmi_class_type_info12__do_dyncastEiNS_17__class_type_info10__sub_kindEPKS1_PKvS4_S6_RNS1_16__dyncast_resultE+0x104>
     f90:	68a3      	ldr	r3, [r4, #8]
     f92:	f013 0f03 	tst.w	r3, #3
     f96:	f000 80bb 	beq.w	1110 <_ZNK10__cxxabiv121__vmi_class_type_info12__do_dyncastEiNS_17__class_type_info10__sub_kindEPKS1_PKvS4_S6_RNS1_16__dyncast_resultE+0x27a>
     f9a:	f006 06fd 	and.w	r6, r6, #253	; 0xfd
     f9e:	9b0a      	ldr	r3, [sp, #40]	; 0x28
     fa0:	4649      	mov	r1, r9
     fa2:	9a1b      	ldr	r2, [sp, #108]	; 0x6c
     fa4:	f853 0c08 	ldr.w	r0, [r3, #-8]
     fa8:	6803      	ldr	r3, [r0, #0]
     faa:	9201      	str	r2, [sp, #4]
     fac:	9a1c      	ldr	r2, [sp, #112]	; 0x70
     fae:	f8cd b000 	str.w	fp, [sp]
     fb2:	9202      	str	r2, [sp, #8]
     fb4:	aa0d      	add	r2, sp, #52	; 0x34
     fb6:	9203      	str	r2, [sp, #12]
     fb8:	4632      	mov	r2, r6
     fba:	69dd      	ldr	r5, [r3, #28]
     fbc:	9b07      	ldr	r3, [sp, #28]
     fbe:	47a8      	blx	r5
     fc0:	f89d 503a 	ldrb.w	r5, [sp, #58]	; 0x3a
     fc4:	7963      	ldrb	r3, [r4, #5]
     fc6:	f89d 2039 	ldrb.w	r2, [sp, #57]	; 0x39
     fca:	2d06      	cmp	r5, #6
     fcc:	ea42 0303 	orr.w	r3, r2, r3
     fd0:	7163      	strb	r3, [r4, #5]
     fd2:	d001      	beq.n	fd8 <_ZNK10__cxxabiv121__vmi_class_type_info12__do_dyncastEiNS_17__class_type_info10__sub_kindEPKS1_PKvS4_S6_RNS1_16__dyncast_resultE+0x142>
     fd4:	2d02      	cmp	r5, #2
     fd6:	d106      	bne.n	fe6 <_ZNK10__cxxabiv121__vmi_class_type_info12__do_dyncastEiNS_17__class_type_info10__sub_kindEPKS1_PKvS4_S6_RNS1_16__dyncast_resultE+0x150>
     fd8:	9b0d      	ldr	r3, [sp, #52]	; 0x34
     fda:	71a5      	strb	r5, [r4, #6]
     fdc:	6023      	str	r3, [r4, #0]
     fde:	f89d 3038 	ldrb.w	r3, [sp, #56]	; 0x38
     fe2:	7123      	strb	r3, [r4, #4]
     fe4:	e0a5      	b.n	1132 <_ZNK10__cxxabiv121__vmi_class_type_info12__do_dyncastEiNS_17__class_type_info10__sub_kindEPKS1_PKvS4_S6_RNS1_16__dyncast_resultE+0x29c>
     fe6:	f8d4 b000 	ldr.w	fp, [r4]
     fea:	f1b8 0f00 	cmp.w	r8, #0
     fee:	d110      	bne.n	1012 <_ZNK10__cxxabiv121__vmi_class_type_info12__do_dyncastEiNS_17__class_type_info10__sub_kindEPKS1_PKvS4_S6_RNS1_16__dyncast_resultE+0x17c>
     ff0:	f1bb 0f00 	cmp.w	fp, #0
     ff4:	d10d      	bne.n	1012 <_ZNK10__cxxabiv121__vmi_class_type_info12__do_dyncastEiNS_17__class_type_info10__sub_kindEPKS1_PKvS4_S6_RNS1_16__dyncast_resultE+0x17c>
     ff6:	9a0d      	ldr	r2, [sp, #52]	; 0x34
     ff8:	f89d 1038 	ldrb.w	r1, [sp, #56]	; 0x38
     ffc:	6022      	str	r2, [r4, #0]
     ffe:	7121      	strb	r1, [r4, #4]
    1000:	2a00      	cmp	r2, #0
    1002:	d07e      	beq.n	1102 <_ZNK10__cxxabiv121__vmi_class_type_info12__do_dyncastEiNS_17__class_type_info10__sub_kindEPKS1_PKvS4_S6_RNS1_16__dyncast_resultE+0x26c>
    1004:	2b00      	cmp	r3, #0
    1006:	d07c      	beq.n	1102 <_ZNK10__cxxabiv121__vmi_class_type_info12__do_dyncastEiNS_17__class_type_info10__sub_kindEPKS1_PKvS4_S6_RNS1_16__dyncast_resultE+0x26c>
    1008:	68bb      	ldr	r3, [r7, #8]
    100a:	f013 0f01 	tst.w	r3, #1
    100e:	d178      	bne.n	1102 <_ZNK10__cxxabiv121__vmi_class_type_info12__do_dyncastEiNS_17__class_type_info10__sub_kindEPKS1_PKvS4_S6_RNS1_16__dyncast_resultE+0x26c>
    1010:	e08f      	b.n	1132 <_ZNK10__cxxabiv121__vmi_class_type_info12__do_dyncastEiNS_17__class_type_info10__sub_kindEPKS1_PKvS4_S6_RNS1_16__dyncast_resultE+0x29c>
    1012:	f1bb 0f00 	cmp.w	fp, #0
    1016:	d00b      	beq.n	1030 <_ZNK10__cxxabiv121__vmi_class_type_info12__do_dyncastEiNS_17__class_type_info10__sub_kindEPKS1_PKvS4_S6_RNS1_16__dyncast_resultE+0x19a>
    1018:	9a0d      	ldr	r2, [sp, #52]	; 0x34
    101a:	4593      	cmp	fp, r2
    101c:	d106      	bne.n	102c <_ZNK10__cxxabiv121__vmi_class_type_info12__do_dyncastEiNS_17__class_type_info10__sub_kindEPKS1_PKvS4_S6_RNS1_16__dyncast_resultE+0x196>
    101e:	7923      	ldrb	r3, [r4, #4]
    1020:	f89d 2038 	ldrb.w	r2, [sp, #56]	; 0x38
    1024:	ea42 0303 	orr.w	r3, r2, r3
    1028:	7123      	strb	r3, [r4, #4]
    102a:	e06b      	b.n	1104 <_ZNK10__cxxabiv121__vmi_class_type_info12__do_dyncastEiNS_17__class_type_info10__sub_kindEPKS1_PKvS4_S6_RNS1_16__dyncast_resultE+0x26e>
    102c:	b932      	cbnz	r2, 103c <_ZNK10__cxxabiv121__vmi_class_type_info12__do_dyncastEiNS_17__class_type_info10__sub_kindEPKS1_PKvS4_S6_RNS1_16__dyncast_resultE+0x1a6>
    102e:	b928      	cbnz	r0, 103c <_ZNK10__cxxabiv121__vmi_class_type_info12__do_dyncastEiNS_17__class_type_info10__sub_kindEPKS1_PKvS4_S6_RNS1_16__dyncast_resultE+0x1a6>
    1030:	9a0d      	ldr	r2, [sp, #52]	; 0x34
    1032:	2a00      	cmp	r2, #0
    1034:	d066      	beq.n	1104 <_ZNK10__cxxabiv121__vmi_class_type_info12__do_dyncastEiNS_17__class_type_info10__sub_kindEPKS1_PKvS4_S6_RNS1_16__dyncast_resultE+0x26e>
    1036:	f1b8 0f00 	cmp.w	r8, #0
    103a:	d063      	beq.n	1104 <_ZNK10__cxxabiv121__vmi_class_type_info12__do_dyncastEiNS_17__class_type_info10__sub_kindEPKS1_PKvS4_S6_RNS1_16__dyncast_resultE+0x26e>
    103c:	4618      	mov	r0, r3
    103e:	79a6      	ldrb	r6, [r4, #6]
    1040:	9305      	str	r3, [sp, #20]
    1042:	f7ff fe0a 	bl	c5a <_ZN10__cxxabiv112_GLOBAL__N_111contained_pENS_17__class_type_info10__sub_kindE>
    1046:	9b05      	ldr	r3, [sp, #20]
    1048:	2800      	cmp	r0, #0
    104a:	d07d      	beq.n	1148 <_ZNK10__cxxabiv121__vmi_class_type_info12__do_dyncastEiNS_17__class_type_info10__sub_kindEPKS1_PKvS4_S6_RNS1_16__dyncast_resultE+0x2b2>
    104c:	4618      	mov	r0, r3
    104e:	f7ff fe09 	bl	c64 <_ZN10__cxxabiv112_GLOBAL__N_19virtual_pENS_17__class_type_info10__sub_kindE>
    1052:	b118      	cbz	r0, 105c <_ZNK10__cxxabiv121__vmi_class_type_info12__do_dyncastEiNS_17__class_type_info10__sub_kindEPKS1_PKvS4_S6_RNS1_16__dyncast_resultE+0x1c6>
    1054:	68a3      	ldr	r3, [r4, #8]
    1056:	f013 0f02 	tst.w	r3, #2
    105a:	d175      	bne.n	1148 <_ZNK10__cxxabiv121__vmi_class_type_info12__do_dyncastEiNS_17__class_type_info10__sub_kindEPKS1_PKvS4_S6_RNS1_16__dyncast_resultE+0x2b2>
    105c:	2e00      	cmp	r6, #0
    105e:	bf08      	it	eq
    1060:	2601      	moveq	r6, #1
    1062:	2d00      	cmp	r5, #0
    1064:	bf08      	it	eq
    1066:	2501      	moveq	r5, #1
    1068:	e01e      	b.n	10a8 <_ZNK10__cxxabiv121__vmi_class_type_info12__do_dyncastEiNS_17__class_type_info10__sub_kindEPKS1_PKvS4_S6_RNS1_16__dyncast_resultE+0x212>
    106a:	4628      	mov	r0, r5
    106c:	f7ff fdf5 	bl	c5a <_ZN10__cxxabiv112_GLOBAL__N_111contained_pENS_17__class_type_info10__sub_kindE>
    1070:	2800      	cmp	r0, #0
    1072:	d06c      	beq.n	114e <_ZNK10__cxxabiv121__vmi_class_type_info12__do_dyncastEiNS_17__class_type_info10__sub_kindEPKS1_PKvS4_S6_RNS1_16__dyncast_resultE+0x2b8>
    1074:	4628      	mov	r0, r5
    1076:	f7ff fdf5 	bl	c64 <_ZN10__cxxabiv112_GLOBAL__N_19virtual_pENS_17__class_type_info10__sub_kindE>
    107a:	b118      	cbz	r0, 1084 <_ZNK10__cxxabiv121__vmi_class_type_info12__do_dyncastEiNS_17__class_type_info10__sub_kindEPKS1_PKvS4_S6_RNS1_16__dyncast_resultE+0x1ee>
    107c:	68bb      	ldr	r3, [r7, #8]
    107e:	f013 0f02 	tst.w	r3, #2
    1082:	d164      	bne.n	114e <_ZNK10__cxxabiv121__vmi_class_type_info12__do_dyncastEiNS_17__class_type_info10__sub_kindEPKS1_PKvS4_S6_RNS1_16__dyncast_resultE+0x2b8>
    1084:	2601      	movs	r6, #1
    1086:	b97d      	cbnz	r5, 10a8 <_ZNK10__cxxabiv121__vmi_class_type_info12__do_dyncastEiNS_17__class_type_info10__sub_kindEPKS1_PKvS4_S6_RNS1_16__dyncast_resultE+0x212>
    1088:	4630      	mov	r0, r6
    108a:	f7ff fde6 	bl	c5a <_ZN10__cxxabiv112_GLOBAL__N_111contained_pENS_17__class_type_info10__sub_kindE>
    108e:	2800      	cmp	r0, #0
    1090:	d067      	beq.n	1162 <_ZNK10__cxxabiv121__vmi_class_type_info12__do_dyncastEiNS_17__class_type_info10__sub_kindEPKS1_PKvS4_S6_RNS1_16__dyncast_resultE+0x2cc>
    1092:	4630      	mov	r0, r6
    1094:	f7ff fde6 	bl	c64 <_ZN10__cxxabiv112_GLOBAL__N_19virtual_pENS_17__class_type_info10__sub_kindE>
    1098:	b128      	cbz	r0, 10a6 <_ZNK10__cxxabiv121__vmi_class_type_info12__do_dyncastEiNS_17__class_type_info10__sub_kindEPKS1_PKvS4_S6_RNS1_16__dyncast_resultE+0x210>
    109a:	68bb      	ldr	r3, [r7, #8]
    109c:	f013 0f02 	tst.w	r3, #2
    10a0:	d15f      	bne.n	1162 <_ZNK10__cxxabiv121__vmi_class_type_info12__do_dyncastEiNS_17__class_type_info10__sub_kindEPKS1_PKvS4_S6_RNS1_16__dyncast_resultE+0x2cc>
    10a2:	3501      	adds	r5, #1
    10a4:	e000      	b.n	10a8 <_ZNK10__cxxabiv121__vmi_class_type_info12__do_dyncastEiNS_17__class_type_info10__sub_kindEPKS1_PKvS4_S6_RNS1_16__dyncast_resultE+0x212>
    10a6:	2501      	movs	r5, #1
    10a8:	ea86 0005 	eor.w	r0, r6, r5
    10ac:	b2c0      	uxtb	r0, r0
    10ae:	f7ff fdd4 	bl	c5a <_ZN10__cxxabiv112_GLOBAL__N_111contained_pENS_17__class_type_info10__sub_kindE>
    10b2:	4683      	mov	fp, r0
    10b4:	b1a0      	cbz	r0, 10e0 <_ZNK10__cxxabiv121__vmi_class_type_info12__do_dyncastEiNS_17__class_type_info10__sub_kindEPKS1_PKvS4_S6_RNS1_16__dyncast_resultE+0x24a>
    10b6:	4628      	mov	r0, r5
    10b8:	f7ff fdcf 	bl	c5a <_ZN10__cxxabiv112_GLOBAL__N_111contained_pENS_17__class_type_info10__sub_kindE>
    10bc:	b138      	cbz	r0, 10ce <_ZNK10__cxxabiv121__vmi_class_type_info12__do_dyncastEiNS_17__class_type_info10__sub_kindEPKS1_PKvS4_S6_RNS1_16__dyncast_resultE+0x238>
    10be:	9b0d      	ldr	r3, [sp, #52]	; 0x34
    10c0:	462e      	mov	r6, r5
    10c2:	f04f 0800 	mov.w	r8, #0
    10c6:	6023      	str	r3, [r4, #0]
    10c8:	f89d 3038 	ldrb.w	r3, [sp, #56]	; 0x38
    10cc:	7123      	strb	r3, [r4, #4]
    10ce:	f016 0f02 	tst.w	r6, #2
    10d2:	71a6      	strb	r6, [r4, #6]
    10d4:	d12a      	bne.n	112c <_ZNK10__cxxabiv121__vmi_class_type_info12__do_dyncastEiNS_17__class_type_info10__sub_kindEPKS1_PKvS4_S6_RNS1_16__dyncast_resultE+0x296>
    10d6:	4630      	mov	r0, r6
    10d8:	f7ff fdc4 	bl	c64 <_ZN10__cxxabiv112_GLOBAL__N_19virtual_pENS_17__class_type_info10__sub_kindE>
    10dc:	b990      	cbnz	r0, 1104 <_ZNK10__cxxabiv121__vmi_class_type_info12__do_dyncastEiNS_17__class_type_info10__sub_kindEPKS1_PKvS4_S6_RNS1_16__dyncast_resultE+0x26e>
    10de:	e028      	b.n	1132 <_ZNK10__cxxabiv121__vmi_class_type_info12__do_dyncastEiNS_17__class_type_info10__sub_kindEPKS1_PKvS4_S6_RNS1_16__dyncast_resultE+0x29c>
    10e0:	ea06 0505 	and.w	r5, r6, r5
    10e4:	f04f 0801 	mov.w	r8, #1
    10e8:	b2e8      	uxtb	r0, r5
    10ea:	f7ff fdb6 	bl	c5a <_ZN10__cxxabiv112_GLOBAL__N_111contained_pENS_17__class_type_info10__sub_kindE>
    10ee:	b120      	cbz	r0, 10fa <_ZNK10__cxxabiv121__vmi_class_type_info12__do_dyncastEiNS_17__class_type_info10__sub_kindEPKS1_PKvS4_S6_RNS1_16__dyncast_resultE+0x264>
    10f0:	2302      	movs	r3, #2
    10f2:	f8c4 b000 	str.w	fp, [r4]
    10f6:	71a3      	strb	r3, [r4, #6]
    10f8:	e01a      	b.n	1130 <_ZNK10__cxxabiv121__vmi_class_type_info12__do_dyncastEiNS_17__class_type_info10__sub_kindEPKS1_PKvS4_S6_RNS1_16__dyncast_resultE+0x29a>
    10fa:	6020      	str	r0, [r4, #0]
    10fc:	f884 8006 	strb.w	r8, [r4, #6]
    1100:	e000      	b.n	1104 <_ZNK10__cxxabiv121__vmi_class_type_info12__do_dyncastEiNS_17__class_type_info10__sub_kindEPKS1_PKvS4_S6_RNS1_16__dyncast_resultE+0x26e>
    1102:	4680      	mov	r8, r0
    1104:	7963      	ldrb	r3, [r4, #5]
    1106:	2b04      	cmp	r3, #4
    1108:	d102      	bne.n	1110 <_ZNK10__cxxabiv121__vmi_class_type_info12__do_dyncastEiNS_17__class_type_info10__sub_kindEPKS1_PKvS4_S6_RNS1_16__dyncast_resultE+0x27a>
    110a:	e011      	b.n	1130 <_ZNK10__cxxabiv121__vmi_class_type_info12__do_dyncastEiNS_17__class_type_info10__sub_kindEPKS1_PKvS4_S6_RNS1_16__dyncast_resultE+0x29a>
    110c:	2301      	movs	r3, #1
    110e:	930b      	str	r3, [sp, #44]	; 0x2c
    1110:	9a0a      	ldr	r2, [sp, #40]	; 0x28
    1112:	3a08      	subs	r2, #8
    1114:	920a      	str	r2, [sp, #40]	; 0x28
    1116:	f1ba 0f00 	cmp.w	sl, #0
    111a:	f47f af0b 	bne.w	f34 <_ZNK10__cxxabiv121__vmi_class_type_info12__do_dyncastEiNS_17__class_type_info10__sub_kindEPKS1_PKvS4_S6_RNS1_16__dyncast_resultE+0x9e>
    111e:	9b0b      	ldr	r3, [sp, #44]	; 0x2c
    1120:	b133      	cbz	r3, 1130 <_ZNK10__cxxabiv121__vmi_class_type_info12__do_dyncastEiNS_17__class_type_info10__sub_kindEPKS1_PKvS4_S6_RNS1_16__dyncast_resultE+0x29a>
    1122:	9a09      	ldr	r2, [sp, #36]	; 0x24
    1124:	2a00      	cmp	r2, #0
    1126:	f47f aefb 	bne.w	f20 <_ZNK10__cxxabiv121__vmi_class_type_info12__do_dyncastEiNS_17__class_type_info10__sub_kindEPKS1_PKvS4_S6_RNS1_16__dyncast_resultE+0x8a>
    112a:	e001      	b.n	1130 <_ZNK10__cxxabiv121__vmi_class_type_info12__do_dyncastEiNS_17__class_type_info10__sub_kindEPKS1_PKvS4_S6_RNS1_16__dyncast_resultE+0x29a>
    112c:	2000      	movs	r0, #0
    112e:	e000      	b.n	1132 <_ZNK10__cxxabiv121__vmi_class_type_info12__do_dyncastEiNS_17__class_type_info10__sub_kindEPKS1_PKvS4_S6_RNS1_16__dyncast_resultE+0x29c>
    1130:	4640      	mov	r0, r8
    1132:	b011      	add	sp, #68	; 0x44
    1134:	e8bd 8ff0 	ldmia.w	sp!, {r4, r5, r6, r7, r8, r9, sl, fp, pc}
    1138:	4638      	mov	r0, r7
    113a:	9907      	ldr	r1, [sp, #28]
    113c:	f7ff fd55 	bl	bea <_ZNKSt9type_infoeqERKS_>
    1140:	2800      	cmp	r0, #0
    1142:	f47f aec4 	bne.w	ece <_ZNK10__cxxabiv121__vmi_class_type_info12__do_dyncastEiNS_17__class_type_info10__sub_kindEPKS1_PKvS4_S6_RNS1_16__dyncast_resultE+0x38>
    1146:	e6db      	b.n	f00 <_ZNK10__cxxabiv121__vmi_class_type_info12__do_dyncastEiNS_17__class_type_info10__sub_kindEPKS1_PKvS4_S6_RNS1_16__dyncast_resultE+0x6a>
    1148:	2e00      	cmp	r6, #0
    114a:	d19c      	bne.n	1086 <_ZNK10__cxxabiv121__vmi_class_type_info12__do_dyncastEiNS_17__class_type_info10__sub_kindEPKS1_PKvS4_S6_RNS1_16__dyncast_resultE+0x1f0>
    114c:	e78d      	b.n	106a <_ZNK10__cxxabiv121__vmi_class_type_info12__do_dyncastEiNS_17__class_type_info10__sub_kindEPKS1_PKvS4_S6_RNS1_16__dyncast_resultE+0x1d4>
    114e:	9b1c      	ldr	r3, [sp, #112]	; 0x70
    1150:	4649      	mov	r1, r9
    1152:	9807      	ldr	r0, [sp, #28]
    1154:	465a      	mov	r2, fp
    1156:	9300      	str	r3, [sp, #0]
    1158:	9b1b      	ldr	r3, [sp, #108]	; 0x6c
    115a:	f7ff fc18 	bl	98e <_ZNK10__cxxabiv117__class_type_info17__find_public_srcEiPKvPKS0_S2_>
    115e:	4606      	mov	r6, r0
    1160:	e791      	b.n	1086 <_ZNK10__cxxabiv121__vmi_class_type_info12__do_dyncastEiNS_17__class_type_info10__sub_kindEPKS1_PKvS4_S6_RNS1_16__dyncast_resultE+0x1f0>
    1162:	9a1c      	ldr	r2, [sp, #112]	; 0x70
    1164:	4649      	mov	r1, r9
    1166:	9807      	ldr	r0, [sp, #28]
    1168:	9b1b      	ldr	r3, [sp, #108]	; 0x6c
    116a:	9200      	str	r2, [sp, #0]
    116c:	9a0d      	ldr	r2, [sp, #52]	; 0x34
    116e:	f7ff fc0e 	bl	98e <_ZNK10__cxxabiv117__class_type_info17__find_public_srcEiPKvPKS0_S2_>
    1172:	4605      	mov	r5, r0
    1174:	e798      	b.n	10a8 <_ZNK10__cxxabiv121__vmi_class_type_info12__do_dyncastEiNS_17__class_type_info10__sub_kindEPKS1_PKvS4_S6_RNS1_16__dyncast_resultE+0x212>

00001176 <_ZN10__cxxabiv111__terminateEPFvvE>:
    1176:	b508      	push	{r3, lr}
    1178:	4780      	blx	r0
    117a:	f004 fd7f 	bl	5c7c <abort>
	...

00001180 <_ZSt9terminatev>:
    1180:	b508      	push	{r3, lr}
    1182:	4b02      	ldr	r3, [pc, #8]	; (118c <_ZSt9terminatev+0xc>)
    1184:	6818      	ldr	r0, [r3, #0]
    1186:	f7ff fff6 	bl	1176 <_ZN10__cxxabiv111__terminateEPFvvE>
    118a:	bf00      	nop
    118c:	100000e8 	.word	0x100000e8

00001190 <_ZN9__gnu_cxx27__verbose_terminate_handlerEv>:
    1190:	4b1d      	ldr	r3, [pc, #116]	; (1208 <_ZN9__gnu_cxx27__verbose_terminate_handlerEv+0x78>)
    1192:	b573      	push	{r0, r1, r4, r5, r6, lr}
    1194:	781e      	ldrb	r6, [r3, #0]
    1196:	4c1d      	ldr	r4, [pc, #116]	; (120c <_ZN9__gnu_cxx27__verbose_terminate_handlerEv+0x7c>)
    1198:	b116      	cbz	r6, 11a0 <_ZN9__gnu_cxx27__verbose_terminate_handlerEv+0x10>
    119a:	6823      	ldr	r3, [r4, #0]
    119c:	481c      	ldr	r0, [pc, #112]	; (1210 <_ZN9__gnu_cxx27__verbose_terminate_handlerEv+0x80>)
    119e:	e02d      	b.n	11fc <_ZN9__gnu_cxx27__verbose_terminate_handlerEv+0x6c>
    11a0:	2201      	movs	r2, #1
    11a2:	701a      	strb	r2, [r3, #0]
    11a4:	f002 fb8e 	bl	38c4 <__cxa_current_exception_type>
    11a8:	b330      	cbz	r0, 11f8 <_ZN9__gnu_cxx27__verbose_terminate_handlerEv+0x68>
    11aa:	f7ff fd18 	bl	bde <_ZNKSt9type_info4nameEv>
    11ae:	ab02      	add	r3, sp, #8
    11b0:	4631      	mov	r1, r6
    11b2:	f04f 32ff 	mov.w	r2, #4294967295
    11b6:	f843 2d04 	str.w	r2, [r3, #-4]!
    11ba:	4632      	mov	r2, r6
    11bc:	4605      	mov	r5, r0
    11be:	f002 fb11 	bl	37e4 <__cxa_demangle>
    11c2:	6823      	ldr	r3, [r4, #0]
    11c4:	68d9      	ldr	r1, [r3, #12]
    11c6:	4606      	mov	r6, r0
    11c8:	4812      	ldr	r0, [pc, #72]	; (1214 <_ZN9__gnu_cxx27__verbose_terminate_handlerEv+0x84>)
    11ca:	f005 f855 	bl	6278 <fputs>
    11ce:	9b01      	ldr	r3, [sp, #4]
    11d0:	b913      	cbnz	r3, 11d8 <_ZN9__gnu_cxx27__verbose_terminate_handlerEv+0x48>
    11d2:	6823      	ldr	r3, [r4, #0]
    11d4:	4630      	mov	r0, r6
    11d6:	e001      	b.n	11dc <_ZN9__gnu_cxx27__verbose_terminate_handlerEv+0x4c>
    11d8:	6823      	ldr	r3, [r4, #0]
    11da:	4628      	mov	r0, r5
    11dc:	68d9      	ldr	r1, [r3, #12]
    11de:	f005 f84b 	bl	6278 <fputs>
    11e2:	6823      	ldr	r3, [r4, #0]
    11e4:	480c      	ldr	r0, [pc, #48]	; (1218 <_ZN9__gnu_cxx27__verbose_terminate_handlerEv+0x88>)
    11e6:	68d9      	ldr	r1, [r3, #12]
    11e8:	f005 f846 	bl	6278 <fputs>
    11ec:	9b01      	ldr	r3, [sp, #4]
    11ee:	b943      	cbnz	r3, 1202 <_ZN9__gnu_cxx27__verbose_terminate_handlerEv+0x72>
    11f0:	4630      	mov	r0, r6
    11f2:	f005 fd4f 	bl	6c94 <free>
    11f6:	e004      	b.n	1202 <_ZN9__gnu_cxx27__verbose_terminate_handlerEv+0x72>
    11f8:	6823      	ldr	r3, [r4, #0]
    11fa:	4808      	ldr	r0, [pc, #32]	; (121c <_ZN9__gnu_cxx27__verbose_terminate_handlerEv+0x8c>)
    11fc:	68d9      	ldr	r1, [r3, #12]
    11fe:	f005 f83b 	bl	6278 <fputs>
    1202:	f004 fd3b 	bl	5c7c <abort>
    1206:	bf00      	nop
    1208:	100007a8 	.word	0x100007a8
    120c:	100001dc 	.word	0x100001dc
    1210:	0000f498 	.word	0x0000f498
    1214:	0000f4b6 	.word	0x0000f4b6
    1218:	0000f4e7 	.word	0x0000f4e7
    121c:	0000f4ea 	.word	0x0000f4ea

00001220 <d_make_empty>:
    1220:	6942      	ldr	r2, [r0, #20]
    1222:	4603      	mov	r3, r0
    1224:	6981      	ldr	r1, [r0, #24]
    1226:	428a      	cmp	r2, r1
    1228:	da06      	bge.n	1238 <d_make_empty+0x18>
    122a:	6901      	ldr	r1, [r0, #16]
    122c:	200c      	movs	r0, #12
    122e:	fb00 1002 	mla	r0, r0, r2, r1
    1232:	3201      	adds	r2, #1
    1234:	615a      	str	r2, [r3, #20]
    1236:	4770      	bx	lr
    1238:	2000      	movs	r0, #0
    123a:	4770      	bx	lr

0000123c <d_make_comp>:
    123c:	b570      	push	{r4, r5, r6, lr}
    123e:	461e      	mov	r6, r3
    1240:	1e4b      	subs	r3, r1, #1
    1242:	460c      	mov	r4, r1
    1244:	4615      	mov	r5, r2
    1246:	2b40      	cmp	r3, #64	; 0x40
    1248:	d82f      	bhi.n	12aa <d_make_comp+0x6e>
    124a:	e8df f003 	tbb	[pc, r3]
    124e:	2121      	.short	0x2121
    1250:	2e2e2121 	.word	0x2e2e2121
    1254:	24242e2e 	.word	0x24242e2e
    1258:	24242421 	.word	0x24242421
    125c:	24242424 	.word	0x24242424
    1260:	2e242424 	.word	0x2e242424
    1264:	27272727 	.word	0x27272727
    1268:	24212727 	.word	0x24212727
    126c:	24242424 	.word	0x24242424
    1270:	2627242e 	.word	0x2627242e
    1274:	27212e21 	.word	0x27212e21
    1278:	242e2e27 	.word	0x242e2e27
    127c:	21212121 	.word	0x21212121
    1280:	21212121 	.word	0x21212121
    1284:	2e2e2124 	.word	0x2e2e2124
    1288:	2e242424 	.word	0x2e242424
    128c:	2e2e      	.short	0x2e2e
    128e:	24          	.byte	0x24
    128f:	00          	.byte	0x00
    1290:	b17d      	cbz	r5, 12b2 <d_make_comp+0x76>
    1292:	b91e      	cbnz	r6, 129c <d_make_comp+0x60>
    1294:	e00b      	b.n	12ae <d_make_comp+0x72>
    1296:	b90d      	cbnz	r5, 129c <d_make_comp+0x60>
    1298:	e00b      	b.n	12b2 <d_make_comp+0x76>
    129a:	b166      	cbz	r6, 12b6 <d_make_comp+0x7a>
    129c:	f7ff ffc0 	bl	1220 <d_make_empty>
    12a0:	b150      	cbz	r0, 12b8 <d_make_comp+0x7c>
    12a2:	7004      	strb	r4, [r0, #0]
    12a4:	6045      	str	r5, [r0, #4]
    12a6:	6086      	str	r6, [r0, #8]
    12a8:	bd70      	pop	{r4, r5, r6, pc}
    12aa:	2000      	movs	r0, #0
    12ac:	bd70      	pop	{r4, r5, r6, pc}
    12ae:	4630      	mov	r0, r6
    12b0:	bd70      	pop	{r4, r5, r6, pc}
    12b2:	4628      	mov	r0, r5
    12b4:	bd70      	pop	{r4, r5, r6, pc}
    12b6:	4630      	mov	r0, r6
    12b8:	bd70      	pop	{r4, r5, r6, pc}

000012ba <d_make_name>:
    12ba:	b538      	push	{r3, r4, r5, lr}
    12bc:	460c      	mov	r4, r1
    12be:	4615      	mov	r5, r2
    12c0:	f7ff ffae 	bl	1220 <d_make_empty>
    12c4:	b148      	cbz	r0, 12da <d_make_name+0x20>
    12c6:	b12c      	cbz	r4, 12d4 <d_make_name+0x1a>
    12c8:	b135      	cbz	r5, 12d8 <d_make_name+0x1e>
    12ca:	2300      	movs	r3, #0
    12cc:	6044      	str	r4, [r0, #4]
    12ce:	7003      	strb	r3, [r0, #0]
    12d0:	6085      	str	r5, [r0, #8]
    12d2:	bd38      	pop	{r3, r4, r5, pc}
    12d4:	4620      	mov	r0, r4
    12d6:	bd38      	pop	{r3, r4, r5, pc}
    12d8:	4628      	mov	r0, r5
    12da:	bd38      	pop	{r3, r4, r5, pc}

000012dc <d_make_builtin_type>:
    12dc:	b510      	push	{r4, lr}
    12de:	460c      	mov	r4, r1
    12e0:	b131      	cbz	r1, 12f0 <d_make_builtin_type+0x14>
    12e2:	f7ff ff9d 	bl	1220 <d_make_empty>
    12e6:	b120      	cbz	r0, 12f2 <d_make_builtin_type+0x16>
    12e8:	2323      	movs	r3, #35	; 0x23
    12ea:	6044      	str	r4, [r0, #4]
    12ec:	7003      	strb	r3, [r0, #0]
    12ee:	bd10      	pop	{r4, pc}
    12f0:	4608      	mov	r0, r1
    12f2:	bd10      	pop	{r4, pc}

000012f4 <d_make_sub>:
    12f4:	b538      	push	{r3, r4, r5, lr}
    12f6:	460c      	mov	r4, r1
    12f8:	4615      	mov	r5, r2
    12fa:	f7ff ff91 	bl	1220 <d_make_empty>
    12fe:	b118      	cbz	r0, 1308 <d_make_sub+0x14>
    1300:	2316      	movs	r3, #22
    1302:	6044      	str	r4, [r0, #4]
    1304:	7003      	strb	r3, [r0, #0]
    1306:	6085      	str	r5, [r0, #8]
    1308:	bd38      	pop	{r3, r4, r5, pc}

0000130a <d_cv_qualifiers>:
    130a:	b570      	push	{r4, r5, r6, lr}
    130c:	4604      	mov	r4, r0
    130e:	460d      	mov	r5, r1
    1310:	4616      	mov	r6, r2
    1312:	68c3      	ldr	r3, [r0, #12]
    1314:	e022      	b.n	135c <d_cv_qualifiers+0x52>
    1316:	68e2      	ldr	r2, [r4, #12]
    1318:	3201      	adds	r2, #1
    131a:	2b72      	cmp	r3, #114	; 0x72
    131c:	60e2      	str	r2, [r4, #12]
    131e:	d105      	bne.n	132c <d_cv_qualifiers+0x22>
    1320:	2e00      	cmp	r6, #0
    1322:	bf0c      	ite	eq
    1324:	2117      	moveq	r1, #23
    1326:	211a      	movne	r1, #26
    1328:	6b23      	ldr	r3, [r4, #48]	; 0x30
    132a:	e006      	b.n	133a <d_cv_qualifiers+0x30>
    132c:	2b56      	cmp	r3, #86	; 0x56
    132e:	6b23      	ldr	r3, [r4, #48]	; 0x30
    1330:	d105      	bne.n	133e <d_cv_qualifiers+0x34>
    1332:	2e00      	cmp	r6, #0
    1334:	bf0c      	ite	eq
    1336:	2118      	moveq	r1, #24
    1338:	211b      	movne	r1, #27
    133a:	3309      	adds	r3, #9
    133c:	e004      	b.n	1348 <d_cv_qualifiers+0x3e>
    133e:	2e00      	cmp	r6, #0
    1340:	bf0c      	ite	eq
    1342:	2119      	moveq	r1, #25
    1344:	211c      	movne	r1, #28
    1346:	3306      	adds	r3, #6
    1348:	2200      	movs	r2, #0
    134a:	6323      	str	r3, [r4, #48]	; 0x30
    134c:	4620      	mov	r0, r4
    134e:	4613      	mov	r3, r2
    1350:	f7ff ff74 	bl	123c <d_make_comp>
    1354:	6028      	str	r0, [r5, #0]
    1356:	b148      	cbz	r0, 136c <d_cv_qualifiers+0x62>
    1358:	68e3      	ldr	r3, [r4, #12]
    135a:	1d05      	adds	r5, r0, #4
    135c:	781b      	ldrb	r3, [r3, #0]
    135e:	2b56      	cmp	r3, #86	; 0x56
    1360:	d0d9      	beq.n	1316 <d_cv_qualifiers+0xc>
    1362:	2b72      	cmp	r3, #114	; 0x72
    1364:	d0d7      	beq.n	1316 <d_cv_qualifiers+0xc>
    1366:	2b4b      	cmp	r3, #75	; 0x4b
    1368:	d101      	bne.n	136e <d_cv_qualifiers+0x64>
    136a:	e7d4      	b.n	1316 <d_cv_qualifiers+0xc>
    136c:	4605      	mov	r5, r0
    136e:	4628      	mov	r0, r5
    1370:	bd70      	pop	{r4, r5, r6, pc}

00001372 <d_add_substitution>:
    1372:	b151      	cbz	r1, 138a <d_add_substitution+0x18>
    1374:	6a03      	ldr	r3, [r0, #32]
    1376:	6a42      	ldr	r2, [r0, #36]	; 0x24
    1378:	4293      	cmp	r3, r2
    137a:	da08      	bge.n	138e <d_add_substitution+0x1c>
    137c:	69c2      	ldr	r2, [r0, #28]
    137e:	f842 1023 	str.w	r1, [r2, r3, lsl #2]
    1382:	3301      	adds	r3, #1
    1384:	6203      	str	r3, [r0, #32]
    1386:	2001      	movs	r0, #1
    1388:	4770      	bx	lr
    138a:	4608      	mov	r0, r1
    138c:	4770      	bx	lr
    138e:	2000      	movs	r0, #0
    1390:	4770      	bx	lr

00001392 <d_substitution>:
    1392:	68c3      	ldr	r3, [r0, #12]
    1394:	b570      	push	{r4, r5, r6, lr}
    1396:	4604      	mov	r4, r0
    1398:	781a      	ldrb	r2, [r3, #0]
    139a:	2a53      	cmp	r2, #83	; 0x53
    139c:	d16f      	bne.n	147e <d_substitution+0xec>
    139e:	1c5a      	adds	r2, r3, #1
    13a0:	60c2      	str	r2, [r0, #12]
    13a2:	785b      	ldrb	r3, [r3, #1]
    13a4:	b11b      	cbz	r3, 13ae <d_substitution+0x1c>
    13a6:	3201      	adds	r2, #1
    13a8:	2b5f      	cmp	r3, #95	; 0x5f
    13aa:	60c2      	str	r2, [r0, #12]
    13ac:	d02e      	beq.n	140c <d_substitution+0x7a>
    13ae:	f1a3 0230 	sub.w	r2, r3, #48	; 0x30
    13b2:	b2d2      	uxtb	r2, r2
    13b4:	2a09      	cmp	r2, #9
    13b6:	d801      	bhi.n	13bc <d_substitution+0x2a>
    13b8:	2200      	movs	r2, #0
    13ba:	e006      	b.n	13ca <d_substitution+0x38>
    13bc:	f1a3 0241 	sub.w	r2, r3, #65	; 0x41
    13c0:	b2d2      	uxtb	r2, r2
    13c2:	2a19      	cmp	r2, #25
    13c4:	d9f8      	bls.n	13b8 <d_substitution+0x26>
    13c6:	e02c      	b.n	1422 <d_substitution+0x90>
    13c8:	460a      	mov	r2, r1
    13ca:	f1a3 0130 	sub.w	r1, r3, #48	; 0x30
    13ce:	b2c9      	uxtb	r1, r1
    13d0:	2909      	cmp	r1, #9
    13d2:	d805      	bhi.n	13e0 <d_substitution+0x4e>
    13d4:	2124      	movs	r1, #36	; 0x24
    13d6:	fb01 3302 	mla	r3, r1, r2, r3
    13da:	f1a3 0130 	sub.w	r1, r3, #48	; 0x30
    13de:	e009      	b.n	13f4 <d_substitution+0x62>
    13e0:	f1a3 0141 	sub.w	r1, r3, #65	; 0x41
    13e4:	b2c9      	uxtb	r1, r1
    13e6:	2919      	cmp	r1, #25
    13e8:	d849      	bhi.n	147e <d_substitution+0xec>
    13ea:	2124      	movs	r1, #36	; 0x24
    13ec:	fb01 3302 	mla	r3, r1, r2, r3
    13f0:	f1a3 0137 	sub.w	r1, r3, #55	; 0x37
    13f4:	4291      	cmp	r1, r2
    13f6:	d342      	bcc.n	147e <d_substitution+0xec>
    13f8:	68e2      	ldr	r2, [r4, #12]
    13fa:	7813      	ldrb	r3, [r2, #0]
    13fc:	2b00      	cmp	r3, #0
    13fe:	d0e3      	beq.n	13c8 <d_substitution+0x36>
    1400:	3201      	adds	r2, #1
    1402:	2b5f      	cmp	r3, #95	; 0x5f
    1404:	60e2      	str	r2, [r4, #12]
    1406:	d1df      	bne.n	13c8 <d_substitution+0x36>
    1408:	3101      	adds	r1, #1
    140a:	e000      	b.n	140e <d_substitution+0x7c>
    140c:	2100      	movs	r1, #0
    140e:	6a23      	ldr	r3, [r4, #32]
    1410:	4299      	cmp	r1, r3
    1412:	d236      	bcs.n	1482 <d_substitution+0xf0>
    1414:	6aa3      	ldr	r3, [r4, #40]	; 0x28
    1416:	3301      	adds	r3, #1
    1418:	62a3      	str	r3, [r4, #40]	; 0x28
    141a:	69e3      	ldr	r3, [r4, #28]
    141c:	f853 0021 	ldr.w	r0, [r3, r1, lsl #2]
    1420:	bd70      	pop	{r4, r5, r6, pc}
    1422:	68a2      	ldr	r2, [r4, #8]
    1424:	f012 0f08 	tst.w	r2, #8
    1428:	d109      	bne.n	143e <d_substitution+0xac>
    142a:	b151      	cbz	r1, 1442 <d_substitution+0xb0>
    142c:	68e2      	ldr	r2, [r4, #12]
    142e:	7816      	ldrb	r6, [r2, #0]
    1430:	3e43      	subs	r6, #67	; 0x43
    1432:	b2f6      	uxtb	r6, r6
    1434:	2e01      	cmp	r6, #1
    1436:	bf8c      	ite	hi
    1438:	2600      	movhi	r6, #0
    143a:	2601      	movls	r6, #1
    143c:	e002      	b.n	1444 <d_substitution+0xb2>
    143e:	2601      	movs	r6, #1
    1440:	e000      	b.n	1444 <d_substitution+0xb2>
    1442:	460e      	mov	r6, r1
    1444:	2200      	movs	r2, #0
    1446:	4910      	ldr	r1, [pc, #64]	; (1488 <d_substitution+0xf6>)
    1448:	188d      	adds	r5, r1, r2
    144a:	5c89      	ldrb	r1, [r1, r2]
    144c:	4299      	cmp	r1, r3
    144e:	d113      	bne.n	1478 <d_substitution+0xe6>
    1450:	6969      	ldr	r1, [r5, #20]
    1452:	b121      	cbz	r1, 145e <d_substitution+0xcc>
    1454:	4620      	mov	r0, r4
    1456:	69aa      	ldr	r2, [r5, #24]
    1458:	f7ff ff4c 	bl	12f4 <d_make_sub>
    145c:	62e0      	str	r0, [r4, #44]	; 0x2c
    145e:	b116      	cbz	r6, 1466 <d_substitution+0xd4>
    1460:	68e9      	ldr	r1, [r5, #12]
    1462:	692a      	ldr	r2, [r5, #16]
    1464:	e001      	b.n	146a <d_substitution+0xd8>
    1466:	6869      	ldr	r1, [r5, #4]
    1468:	68aa      	ldr	r2, [r5, #8]
    146a:	6b23      	ldr	r3, [r4, #48]	; 0x30
    146c:	4620      	mov	r0, r4
    146e:	189b      	adds	r3, r3, r2
    1470:	6323      	str	r3, [r4, #48]	; 0x30
    1472:	e8bd 4070 	ldmia.w	sp!, {r4, r5, r6, lr}
    1476:	e73d      	b.n	12f4 <d_make_sub>
    1478:	321c      	adds	r2, #28
    147a:	2ac4      	cmp	r2, #196	; 0xc4
    147c:	d1e3      	bne.n	1446 <d_substitution+0xb4>
    147e:	2000      	movs	r0, #0
    1480:	bd70      	pop	{r4, r5, r6, pc}
    1482:	2000      	movs	r0, #0
    1484:	bd70      	pop	{r4, r5, r6, pc}
    1486:	bf00      	nop
    1488:	0000f518 	.word	0x0000f518

0000148c <d_print_flush>:
    148c:	f8d0 1104 	ldr.w	r1, [r0, #260]	; 0x104
    1490:	b538      	push	{r3, r4, r5, lr}
    1492:	4604      	mov	r4, r0
    1494:	1843      	adds	r3, r0, r1
    1496:	2500      	movs	r5, #0
    1498:	f8d4 2110 	ldr.w	r2, [r4, #272]	; 0x110
    149c:	711d      	strb	r5, [r3, #4]
    149e:	f8d0 310c 	ldr.w	r3, [r0, #268]	; 0x10c
    14a2:	3004      	adds	r0, #4
    14a4:	4798      	blx	r3
    14a6:	f8d4 3124 	ldr.w	r3, [r4, #292]	; 0x124
    14aa:	f8c4 5104 	str.w	r5, [r4, #260]	; 0x104
    14ae:	3301      	adds	r3, #1
    14b0:	f8c4 3124 	str.w	r3, [r4, #292]	; 0x124
    14b4:	bd38      	pop	{r3, r4, r5, pc}

000014b6 <d_append_char>:
    14b6:	b538      	push	{r3, r4, r5, lr}
    14b8:	4604      	mov	r4, r0
    14ba:	f8d0 3104 	ldr.w	r3, [r0, #260]	; 0x104
    14be:	460d      	mov	r5, r1
    14c0:	2bff      	cmp	r3, #255	; 0xff
    14c2:	d101      	bne.n	14c8 <d_append_char+0x12>
    14c4:	f7ff ffe2 	bl	148c <d_print_flush>
    14c8:	f8d4 3104 	ldr.w	r3, [r4, #260]	; 0x104
    14cc:	f884 5108 	strb.w	r5, [r4, #264]	; 0x108
    14d0:	18e2      	adds	r2, r4, r3
    14d2:	3301      	adds	r3, #1
    14d4:	f8c4 3104 	str.w	r3, [r4, #260]	; 0x104
    14d8:	7115      	strb	r5, [r2, #4]
    14da:	bd38      	pop	{r3, r4, r5, pc}

000014dc <d_append_buffer>:
    14dc:	b5f8      	push	{r3, r4, r5, r6, r7, lr}
    14de:	4605      	mov	r5, r0
    14e0:	460c      	mov	r4, r1
    14e2:	4617      	mov	r7, r2
    14e4:	2600      	movs	r6, #0
    14e6:	e004      	b.n	14f2 <d_append_buffer+0x16>
    14e8:	5da1      	ldrb	r1, [r4, r6]
    14ea:	4628      	mov	r0, r5
    14ec:	f7ff ffe3 	bl	14b6 <d_append_char>
    14f0:	3601      	adds	r6, #1
    14f2:	42be      	cmp	r6, r7
    14f4:	d1f8      	bne.n	14e8 <d_append_buffer+0xc>
    14f6:	bdf8      	pop	{r3, r4, r5, r6, r7, pc}

000014f8 <d_index_template_argument>:
    14f8:	e006      	b.n	1508 <d_index_template_argument+0x10>
    14fa:	7803      	ldrb	r3, [r0, #0]
    14fc:	2b2b      	cmp	r3, #43	; 0x2b
    14fe:	d109      	bne.n	1514 <d_index_template_argument+0x1c>
    1500:	2900      	cmp	r1, #0
    1502:	dd03      	ble.n	150c <d_index_template_argument+0x14>
    1504:	6880      	ldr	r0, [r0, #8]
    1506:	3901      	subs	r1, #1
    1508:	2800      	cmp	r0, #0
    150a:	d1f6      	bne.n	14fa <d_index_template_argument+0x2>
    150c:	b921      	cbnz	r1, 1518 <d_index_template_argument+0x20>
    150e:	b120      	cbz	r0, 151a <d_index_template_argument+0x22>
    1510:	6840      	ldr	r0, [r0, #4]
    1512:	4770      	bx	lr
    1514:	2000      	movs	r0, #0
    1516:	4770      	bx	lr
    1518:	2000      	movs	r0, #0
    151a:	4770      	bx	lr

0000151c <d_append_string>:
    151c:	b570      	push	{r4, r5, r6, lr}
    151e:	4604      	mov	r4, r0
    1520:	4608      	mov	r0, r1
    1522:	460d      	mov	r5, r1
    1524:	f006 fa42 	bl	79ac <strlen>
    1528:	4629      	mov	r1, r5
    152a:	4602      	mov	r2, r0
    152c:	4620      	mov	r0, r4
    152e:	e8bd 4070 	ldmia.w	sp!, {r4, r5, r6, lr}
    1532:	e7d3      	b.n	14dc <d_append_buffer>

00001534 <d_append_num>:
    1534:	b510      	push	{r4, lr}
    1536:	b088      	sub	sp, #32
    1538:	4604      	mov	r4, r0
    153a:	460a      	mov	r2, r1
    153c:	a801      	add	r0, sp, #4
    153e:	4904      	ldr	r1, [pc, #16]	; (1550 <d_append_num+0x1c>)
    1540:	f006 f98c 	bl	785c <sprintf>
    1544:	4620      	mov	r0, r4
    1546:	a901      	add	r1, sp, #4
    1548:	f7ff ffe8 	bl	151c <d_append_string>
    154c:	b008      	add	sp, #32
    154e:	bd10      	pop	{r4, pc}
    1550:	00010499 	.word	0x00010499

00001554 <d_growable_string_resize>:
    1554:	68c3      	ldr	r3, [r0, #12]
    1556:	b570      	push	{r4, r5, r6, lr}
    1558:	4604      	mov	r4, r0
    155a:	b9c3      	cbnz	r3, 158e <d_growable_string_resize+0x3a>
    155c:	6885      	ldr	r5, [r0, #8]
    155e:	2d00      	cmp	r5, #0
    1560:	bf08      	it	eq
    1562:	2502      	moveq	r5, #2
    1564:	e000      	b.n	1568 <d_growable_string_resize+0x14>
    1566:	006d      	lsls	r5, r5, #1
    1568:	428d      	cmp	r5, r1
    156a:	d3fc      	bcc.n	1566 <d_growable_string_resize+0x12>
    156c:	6820      	ldr	r0, [r4, #0]
    156e:	4629      	mov	r1, r5
    1570:	f005 fe3a 	bl	71e8 <realloc>
    1574:	4606      	mov	r6, r0
    1576:	b940      	cbnz	r0, 158a <d_growable_string_resize+0x36>
    1578:	6820      	ldr	r0, [r4, #0]
    157a:	f005 fb8b 	bl	6c94 <free>
    157e:	2301      	movs	r3, #1
    1580:	6026      	str	r6, [r4, #0]
    1582:	6066      	str	r6, [r4, #4]
    1584:	60a6      	str	r6, [r4, #8]
    1586:	60e3      	str	r3, [r4, #12]
    1588:	bd70      	pop	{r4, r5, r6, pc}
    158a:	6020      	str	r0, [r4, #0]
    158c:	60a5      	str	r5, [r4, #8]
    158e:	bd70      	pop	{r4, r5, r6, pc}

00001590 <d_growable_string_callback_adapter>:
    1590:	b5f8      	push	{r3, r4, r5, r6, r7, lr}
    1592:	460d      	mov	r5, r1
    1594:	6851      	ldr	r1, [r2, #4]
    1596:	4607      	mov	r7, r0
    1598:	6893      	ldr	r3, [r2, #8]
    159a:	4614      	mov	r4, r2
    159c:	3101      	adds	r1, #1
    159e:	1949      	adds	r1, r1, r5
    15a0:	4299      	cmp	r1, r3
    15a2:	d902      	bls.n	15aa <d_growable_string_callback_adapter+0x1a>
    15a4:	4610      	mov	r0, r2
    15a6:	f7ff ffd5 	bl	1554 <d_growable_string_resize>
    15aa:	68e6      	ldr	r6, [r4, #12]
    15ac:	b96e      	cbnz	r6, 15ca <d_growable_string_callback_adapter+0x3a>
    15ae:	6863      	ldr	r3, [r4, #4]
    15b0:	462a      	mov	r2, r5
    15b2:	6820      	ldr	r0, [r4, #0]
    15b4:	4639      	mov	r1, r7
    15b6:	18c0      	adds	r0, r0, r3
    15b8:	f005 fd94 	bl	70e4 <memcpy>
    15bc:	6822      	ldr	r2, [r4, #0]
    15be:	6863      	ldr	r3, [r4, #4]
    15c0:	1952      	adds	r2, r2, r5
    15c2:	54d6      	strb	r6, [r2, r3]
    15c4:	6863      	ldr	r3, [r4, #4]
    15c6:	195d      	adds	r5, r3, r5
    15c8:	6065      	str	r5, [r4, #4]
    15ca:	bdf8      	pop	{r3, r4, r5, r6, r7, pc}

000015cc <d_number.clone.0>:
    15cc:	6803      	ldr	r3, [r0, #0]
    15ce:	b510      	push	{r4, lr}
    15d0:	781a      	ldrb	r2, [r3, #0]
    15d2:	2a6e      	cmp	r2, #110	; 0x6e
    15d4:	d104      	bne.n	15e0 <d_number.clone.0+0x14>
    15d6:	1c5a      	adds	r2, r3, #1
    15d8:	2101      	movs	r1, #1
    15da:	6002      	str	r2, [r0, #0]
    15dc:	785a      	ldrb	r2, [r3, #1]
    15de:	e000      	b.n	15e2 <d_number.clone.0+0x16>
    15e0:	2100      	movs	r1, #0
    15e2:	2300      	movs	r3, #0
    15e4:	f1a2 0430 	sub.w	r4, r2, #48	; 0x30
    15e8:	b2e4      	uxtb	r4, r4
    15ea:	2c09      	cmp	r4, #9
    15ec:	d903      	bls.n	15f6 <d_number.clone.0+0x2a>
    15ee:	b101      	cbz	r1, 15f2 <d_number.clone.0+0x26>
    15f0:	425b      	negs	r3, r3
    15f2:	4618      	mov	r0, r3
    15f4:	bd10      	pop	{r4, pc}
    15f6:	240a      	movs	r4, #10
    15f8:	fb04 2303 	mla	r3, r4, r3, r2
    15fc:	6802      	ldr	r2, [r0, #0]
    15fe:	1c54      	adds	r4, r2, #1
    1600:	6004      	str	r4, [r0, #0]
    1602:	3b30      	subs	r3, #48	; 0x30
    1604:	7852      	ldrb	r2, [r2, #1]
    1606:	e7ed      	b.n	15e4 <d_number.clone.0+0x18>

00001608 <d_call_offset>:
    1608:	b538      	push	{r3, r4, r5, lr}
    160a:	4604      	mov	r4, r0
    160c:	b929      	cbnz	r1, 161a <d_call_offset+0x12>
    160e:	68c3      	ldr	r3, [r0, #12]
    1610:	7818      	ldrb	r0, [r3, #0]
    1612:	b310      	cbz	r0, 165a <d_call_offset+0x52>
    1614:	4601      	mov	r1, r0
    1616:	3301      	adds	r3, #1
    1618:	60e3      	str	r3, [r4, #12]
    161a:	2968      	cmp	r1, #104	; 0x68
    161c:	d102      	bne.n	1624 <d_call_offset+0x1c>
    161e:	f104 000c 	add.w	r0, r4, #12
    1622:	e00d      	b.n	1640 <d_call_offset+0x38>
    1624:	2976      	cmp	r1, #118	; 0x76
    1626:	d115      	bne.n	1654 <d_call_offset+0x4c>
    1628:	f104 050c 	add.w	r5, r4, #12
    162c:	4628      	mov	r0, r5
    162e:	f7ff ffcd 	bl	15cc <d_number.clone.0>
    1632:	68e3      	ldr	r3, [r4, #12]
    1634:	781a      	ldrb	r2, [r3, #0]
    1636:	2a5f      	cmp	r2, #95	; 0x5f
    1638:	d10c      	bne.n	1654 <d_call_offset+0x4c>
    163a:	4628      	mov	r0, r5
    163c:	3301      	adds	r3, #1
    163e:	60e3      	str	r3, [r4, #12]
    1640:	f7ff ffc4 	bl	15cc <d_number.clone.0>
    1644:	68e3      	ldr	r3, [r4, #12]
    1646:	781a      	ldrb	r2, [r3, #0]
    1648:	2a5f      	cmp	r2, #95	; 0x5f
    164a:	d105      	bne.n	1658 <d_call_offset+0x50>
    164c:	3301      	adds	r3, #1
    164e:	2001      	movs	r0, #1
    1650:	60e3      	str	r3, [r4, #12]
    1652:	bd38      	pop	{r3, r4, r5, pc}
    1654:	2000      	movs	r0, #0
    1656:	bd38      	pop	{r3, r4, r5, pc}
    1658:	2000      	movs	r0, #0
    165a:	bd38      	pop	{r3, r4, r5, pc}

0000165c <d_compact_number>:
    165c:	68c3      	ldr	r3, [r0, #12]
    165e:	b510      	push	{r4, lr}
    1660:	4604      	mov	r4, r0
    1662:	781b      	ldrb	r3, [r3, #0]
    1664:	2b5f      	cmp	r3, #95	; 0x5f
    1666:	d006      	beq.n	1676 <d_compact_number+0x1a>
    1668:	2b6e      	cmp	r3, #110	; 0x6e
    166a:	d00c      	beq.n	1686 <d_compact_number+0x2a>
    166c:	300c      	adds	r0, #12
    166e:	f7ff ffad 	bl	15cc <d_number.clone.0>
    1672:	3001      	adds	r0, #1
    1674:	e000      	b.n	1678 <d_compact_number+0x1c>
    1676:	2000      	movs	r0, #0
    1678:	68e3      	ldr	r3, [r4, #12]
    167a:	781a      	ldrb	r2, [r3, #0]
    167c:	2a5f      	cmp	r2, #95	; 0x5f
    167e:	d105      	bne.n	168c <d_compact_number+0x30>
    1680:	3301      	adds	r3, #1
    1682:	60e3      	str	r3, [r4, #12]
    1684:	bd10      	pop	{r4, pc}
    1686:	f04f 30ff 	mov.w	r0, #4294967295
    168a:	bd10      	pop	{r4, pc}
    168c:	f04f 30ff 	mov.w	r0, #4294967295
    1690:	bd10      	pop	{r4, pc}

00001692 <d_template_param>:
    1692:	b538      	push	{r3, r4, r5, lr}
    1694:	4604      	mov	r4, r0
    1696:	68c3      	ldr	r3, [r0, #12]
    1698:	781a      	ldrb	r2, [r3, #0]
    169a:	2a54      	cmp	r2, #84	; 0x54
    169c:	d110      	bne.n	16c0 <d_template_param+0x2e>
    169e:	3301      	adds	r3, #1
    16a0:	60c3      	str	r3, [r0, #12]
    16a2:	f7ff ffdb 	bl	165c <d_compact_number>
    16a6:	1e05      	subs	r5, r0, #0
    16a8:	db0c      	blt.n	16c4 <d_template_param+0x32>
    16aa:	6aa3      	ldr	r3, [r4, #40]	; 0x28
    16ac:	4620      	mov	r0, r4
    16ae:	3301      	adds	r3, #1
    16b0:	62a3      	str	r3, [r4, #40]	; 0x28
    16b2:	f7ff fdb5 	bl	1220 <d_make_empty>
    16b6:	b130      	cbz	r0, 16c6 <d_template_param+0x34>
    16b8:	2305      	movs	r3, #5
    16ba:	6045      	str	r5, [r0, #4]
    16bc:	7003      	strb	r3, [r0, #0]
    16be:	bd38      	pop	{r3, r4, r5, pc}
    16c0:	2000      	movs	r0, #0
    16c2:	bd38      	pop	{r3, r4, r5, pc}
    16c4:	2000      	movs	r0, #0
    16c6:	bd38      	pop	{r3, r4, r5, pc}

000016c8 <d_discriminator>:
    16c8:	b508      	push	{r3, lr}
    16ca:	68c3      	ldr	r3, [r0, #12]
    16cc:	781a      	ldrb	r2, [r3, #0]
    16ce:	2a5f      	cmp	r2, #95	; 0x5f
    16d0:	d107      	bne.n	16e2 <d_discriminator+0x1a>
    16d2:	3301      	adds	r3, #1
    16d4:	f840 3f0c 	str.w	r3, [r0, #12]!
    16d8:	f7ff ff78 	bl	15cc <d_number.clone.0>
    16dc:	43c0      	mvns	r0, r0
    16de:	0fc0      	lsrs	r0, r0, #31
    16e0:	bd08      	pop	{r3, pc}
    16e2:	2001      	movs	r0, #1
    16e4:	bd08      	pop	{r3, pc}

000016e6 <d_source_name>:
    16e6:	b570      	push	{r4, r5, r6, lr}
    16e8:	4604      	mov	r4, r0
    16ea:	300c      	adds	r0, #12
    16ec:	f7ff ff6e 	bl	15cc <d_number.clone.0>
    16f0:	1e06      	subs	r6, r0, #0
    16f2:	dd34      	ble.n	175e <d_source_name+0x78>
    16f4:	68e5      	ldr	r5, [r4, #12]
    16f6:	6863      	ldr	r3, [r4, #4]
    16f8:	1b5b      	subs	r3, r3, r5
    16fa:	42b3      	cmp	r3, r6
    16fc:	db2c      	blt.n	1758 <d_source_name+0x72>
    16fe:	68a2      	ldr	r2, [r4, #8]
    1700:	19ab      	adds	r3, r5, r6
    1702:	60e3      	str	r3, [r4, #12]
    1704:	f012 0f04 	tst.w	r2, #4
    1708:	d004      	beq.n	1714 <d_source_name+0x2e>
    170a:	5daa      	ldrb	r2, [r5, r6]
    170c:	2a24      	cmp	r2, #36	; 0x24
    170e:	d101      	bne.n	1714 <d_source_name+0x2e>
    1710:	3301      	adds	r3, #1
    1712:	60e3      	str	r3, [r4, #12]
    1714:	2e09      	cmp	r6, #9
    1716:	dd19      	ble.n	174c <d_source_name+0x66>
    1718:	4628      	mov	r0, r5
    171a:	4912      	ldr	r1, [pc, #72]	; (1764 <d_source_name+0x7e>)
    171c:	2208      	movs	r2, #8
    171e:	f005 fcd3 	bl	70c8 <memcmp>
    1722:	b998      	cbnz	r0, 174c <d_source_name+0x66>
    1724:	7a2b      	ldrb	r3, [r5, #8]
    1726:	f105 0208 	add.w	r2, r5, #8
    172a:	2b2e      	cmp	r3, #46	; 0x2e
    172c:	d003      	beq.n	1736 <d_source_name+0x50>
    172e:	2b5f      	cmp	r3, #95	; 0x5f
    1730:	d001      	beq.n	1736 <d_source_name+0x50>
    1732:	2b24      	cmp	r3, #36	; 0x24
    1734:	d10a      	bne.n	174c <d_source_name+0x66>
    1736:	7853      	ldrb	r3, [r2, #1]
    1738:	2b4e      	cmp	r3, #78	; 0x4e
    173a:	d107      	bne.n	174c <d_source_name+0x66>
    173c:	6b23      	ldr	r3, [r4, #48]	; 0x30
    173e:	4620      	mov	r0, r4
    1740:	4909      	ldr	r1, [pc, #36]	; (1768 <d_source_name+0x82>)
    1742:	2215      	movs	r2, #21
    1744:	3316      	adds	r3, #22
    1746:	1b9e      	subs	r6, r3, r6
    1748:	6326      	str	r6, [r4, #48]	; 0x30
    174a:	e002      	b.n	1752 <d_source_name+0x6c>
    174c:	4620      	mov	r0, r4
    174e:	4629      	mov	r1, r5
    1750:	4632      	mov	r2, r6
    1752:	f7ff fdb2 	bl	12ba <d_make_name>
    1756:	e000      	b.n	175a <d_source_name+0x74>
    1758:	2000      	movs	r0, #0
    175a:	62e0      	str	r0, [r4, #44]	; 0x2c
    175c:	bd70      	pop	{r4, r5, r6, pc}
    175e:	2000      	movs	r0, #0
    1760:	bd70      	pop	{r4, r5, r6, pc}
    1762:	bf00      	nop
    1764:	0000fbac 	.word	0x0000fbac
    1768:	0000fbb5 	.word	0x0000fbb5

0000176c <d_encoding>:
    176c:	68c3      	ldr	r3, [r0, #12]
    176e:	e92d 41f0 	stmdb	sp!, {r4, r5, r6, r7, r8, lr}
    1772:	4604      	mov	r4, r0
    1774:	781a      	ldrb	r2, [r3, #0]
    1776:	460d      	mov	r5, r1
    1778:	2a47      	cmp	r2, #71	; 0x47
    177a:	d002      	beq.n	1782 <d_encoding+0x16>
    177c:	2a54      	cmp	r2, #84	; 0x54
    177e:	f040 8137 	bne.w	19f0 <d_encoding+0x284>
    1782:	6b22      	ldr	r2, [r4, #48]	; 0x30
    1784:	f102 0114 	add.w	r1, r2, #20
    1788:	6321      	str	r1, [r4, #48]	; 0x30
    178a:	7819      	ldrb	r1, [r3, #0]
    178c:	2954      	cmp	r1, #84	; 0x54
    178e:	d105      	bne.n	179c <d_encoding+0x30>
    1790:	1c58      	adds	r0, r3, #1
    1792:	60e0      	str	r0, [r4, #12]
    1794:	7859      	ldrb	r1, [r3, #1]
    1796:	b929      	cbnz	r1, 17a4 <d_encoding+0x38>
    1798:	460e      	mov	r6, r1
    179a:	e17d      	b.n	1a98 <d_encoding+0x32c>
    179c:	2947      	cmp	r1, #71	; 0x47
    179e:	f040 8125 	bne.w	19ec <d_encoding+0x280>
    17a2:	e09e      	b.n	18e2 <d_encoding+0x176>
    17a4:	3001      	adds	r0, #1
    17a6:	2953      	cmp	r1, #83	; 0x53
    17a8:	60e0      	str	r0, [r4, #12]
    17aa:	d037      	beq.n	181c <d_encoding+0xb0>
    17ac:	d80d      	bhi.n	17ca <d_encoding+0x5e>
    17ae:	2946      	cmp	r1, #70	; 0x46
    17b0:	f000 8089 	beq.w	18c6 <d_encoding+0x15a>
    17b4:	d803      	bhi.n	17be <d_encoding+0x52>
    17b6:	2943      	cmp	r1, #67	; 0x43
    17b8:	f040 8118 	bne.w	19ec <d_encoding+0x280>
    17bc:	e067      	b.n	188e <d_encoding+0x122>
    17be:	2949      	cmp	r1, #73	; 0x49
    17c0:	d025      	beq.n	180e <d_encoding+0xa2>
    17c2:	294a      	cmp	r1, #74	; 0x4a
    17c4:	f040 8112 	bne.w	19ec <d_encoding+0x280>
    17c8:	e084      	b.n	18d4 <d_encoding+0x168>
    17ca:	2963      	cmp	r1, #99	; 0x63
    17cc:	d049      	beq.n	1862 <d_encoding+0xf6>
    17ce:	d805      	bhi.n	17dc <d_encoding+0x70>
    17d0:	2954      	cmp	r1, #84	; 0x54
    17d2:	d012      	beq.n	17fa <d_encoding+0x8e>
    17d4:	2956      	cmp	r1, #86	; 0x56
    17d6:	f040 8109 	bne.w	19ec <d_encoding+0x280>
    17da:	e005      	b.n	17e8 <d_encoding+0x7c>
    17dc:	2968      	cmp	r1, #104	; 0x68
    17de:	d024      	beq.n	182a <d_encoding+0xbe>
    17e0:	2976      	cmp	r1, #118	; 0x76
    17e2:	f040 8103 	bne.w	19ec <d_encoding+0x280>
    17e6:	e02e      	b.n	1846 <d_encoding+0xda>
    17e8:	320f      	adds	r2, #15
    17ea:	4620      	mov	r0, r4
    17ec:	6322      	str	r2, [r4, #48]	; 0x30
    17ee:	f000 fb38 	bl	1e62 <d_type>
    17f2:	2109      	movs	r1, #9
    17f4:	4602      	mov	r2, r0
    17f6:	4620      	mov	r0, r4
    17f8:	e007      	b.n	180a <d_encoding+0x9e>
    17fa:	320a      	adds	r2, #10
    17fc:	4620      	mov	r0, r4
    17fe:	6322      	str	r2, [r4, #48]	; 0x30
    1800:	f000 fb2f 	bl	1e62 <d_type>
    1804:	210a      	movs	r1, #10
    1806:	4602      	mov	r2, r0
    1808:	4620      	mov	r0, r4
    180a:	2300      	movs	r3, #0
    180c:	e140      	b.n	1a90 <d_encoding+0x324>
    180e:	4620      	mov	r0, r4
    1810:	f000 fb27 	bl	1e62 <d_type>
    1814:	210c      	movs	r1, #12
    1816:	4602      	mov	r2, r0
    1818:	4620      	mov	r0, r4
    181a:	e7f6      	b.n	180a <d_encoding+0x9e>
    181c:	4620      	mov	r0, r4
    181e:	f000 fb20 	bl	1e62 <d_type>
    1822:	210d      	movs	r1, #13
    1824:	4602      	mov	r2, r0
    1826:	4620      	mov	r0, r4
    1828:	e7ef      	b.n	180a <d_encoding+0x9e>
    182a:	4620      	mov	r0, r4
    182c:	f7ff feec 	bl	1608 <d_call_offset>
    1830:	2800      	cmp	r0, #0
    1832:	f000 80d9 	beq.w	19e8 <d_encoding+0x27c>
    1836:	2100      	movs	r1, #0
    1838:	4620      	mov	r0, r4
    183a:	f7ff ff97 	bl	176c <d_encoding>
    183e:	210f      	movs	r1, #15
    1840:	4602      	mov	r2, r0
    1842:	4620      	mov	r0, r4
    1844:	e7e1      	b.n	180a <d_encoding+0x9e>
    1846:	4620      	mov	r0, r4
    1848:	f7ff fede 	bl	1608 <d_call_offset>
    184c:	2800      	cmp	r0, #0
    184e:	f000 80cb 	beq.w	19e8 <d_encoding+0x27c>
    1852:	2100      	movs	r1, #0
    1854:	4620      	mov	r0, r4
    1856:	f7ff ff89 	bl	176c <d_encoding>
    185a:	2110      	movs	r1, #16
    185c:	4602      	mov	r2, r0
    185e:	4620      	mov	r0, r4
    1860:	e7d3      	b.n	180a <d_encoding+0x9e>
    1862:	4620      	mov	r0, r4
    1864:	2100      	movs	r1, #0
    1866:	f7ff fecf 	bl	1608 <d_call_offset>
    186a:	2800      	cmp	r0, #0
    186c:	f000 80bc 	beq.w	19e8 <d_encoding+0x27c>
    1870:	4620      	mov	r0, r4
    1872:	2100      	movs	r1, #0
    1874:	f7ff fec8 	bl	1608 <d_call_offset>
    1878:	2800      	cmp	r0, #0
    187a:	f000 80b5 	beq.w	19e8 <d_encoding+0x27c>
    187e:	2100      	movs	r1, #0
    1880:	4620      	mov	r0, r4
    1882:	f7ff ff73 	bl	176c <d_encoding>
    1886:	2111      	movs	r1, #17
    1888:	4602      	mov	r2, r0
    188a:	4620      	mov	r0, r4
    188c:	e7bd      	b.n	180a <d_encoding+0x9e>
    188e:	4620      	mov	r0, r4
    1890:	f000 fae7 	bl	1e62 <d_type>
    1894:	4605      	mov	r5, r0
    1896:	f104 000c 	add.w	r0, r4, #12
    189a:	f7ff fe97 	bl	15cc <d_number.clone.0>
    189e:	2800      	cmp	r0, #0
    18a0:	f2c0 80a4 	blt.w	19ec <d_encoding+0x280>
    18a4:	68e3      	ldr	r3, [r4, #12]
    18a6:	781a      	ldrb	r2, [r3, #0]
    18a8:	2a5f      	cmp	r2, #95	; 0x5f
    18aa:	f040 809f 	bne.w	19ec <d_encoding+0x280>
    18ae:	3301      	adds	r3, #1
    18b0:	4620      	mov	r0, r4
    18b2:	60e3      	str	r3, [r4, #12]
    18b4:	f000 fad5 	bl	1e62 <d_type>
    18b8:	6b23      	ldr	r3, [r4, #48]	; 0x30
    18ba:	210b      	movs	r1, #11
    18bc:	3305      	adds	r3, #5
    18be:	6323      	str	r3, [r4, #48]	; 0x30
    18c0:	4602      	mov	r2, r0
    18c2:	4620      	mov	r0, r4
    18c4:	e0e3      	b.n	1a8e <d_encoding+0x322>
    18c6:	4620      	mov	r0, r4
    18c8:	f000 facb 	bl	1e62 <d_type>
    18cc:	210e      	movs	r1, #14
    18ce:	4602      	mov	r2, r0
    18d0:	4620      	mov	r0, r4
    18d2:	e79a      	b.n	180a <d_encoding+0x9e>
    18d4:	4620      	mov	r0, r4
    18d6:	f000 fac4 	bl	1e62 <d_type>
    18da:	2112      	movs	r1, #18
    18dc:	4602      	mov	r2, r0
    18de:	4620      	mov	r0, r4
    18e0:	e793      	b.n	180a <d_encoding+0x9e>
    18e2:	1c5a      	adds	r2, r3, #1
    18e4:	60e2      	str	r2, [r4, #12]
    18e6:	785e      	ldrb	r6, [r3, #1]
    18e8:	2e00      	cmp	r6, #0
    18ea:	f000 80d5 	beq.w	1a98 <d_encoding+0x32c>
    18ee:	1c9a      	adds	r2, r3, #2
    18f0:	2e52      	cmp	r6, #82	; 0x52
    18f2:	60e2      	str	r2, [r4, #12]
    18f4:	d00f      	beq.n	1916 <d_encoding+0x1aa>
    18f6:	d802      	bhi.n	18fe <d_encoding+0x192>
    18f8:	2e41      	cmp	r6, #65	; 0x41
    18fa:	d177      	bne.n	19ec <d_encoding+0x280>
    18fc:	e012      	b.n	1924 <d_encoding+0x1b8>
    18fe:	2e56      	cmp	r6, #86	; 0x56
    1900:	d002      	beq.n	1908 <d_encoding+0x19c>
    1902:	2e72      	cmp	r6, #114	; 0x72
    1904:	d172      	bne.n	19ec <d_encoding+0x280>
    1906:	e015      	b.n	1934 <d_encoding+0x1c8>
    1908:	4620      	mov	r0, r4
    190a:	f000 f978 	bl	1bfe <d_name>
    190e:	2113      	movs	r1, #19
    1910:	4602      	mov	r2, r0
    1912:	4620      	mov	r0, r4
    1914:	e779      	b.n	180a <d_encoding+0x9e>
    1916:	4620      	mov	r0, r4
    1918:	f000 f971 	bl	1bfe <d_name>
    191c:	2114      	movs	r1, #20
    191e:	4602      	mov	r2, r0
    1920:	4620      	mov	r0, r4
    1922:	e772      	b.n	180a <d_encoding+0x9e>
    1924:	2100      	movs	r1, #0
    1926:	4620      	mov	r0, r4
    1928:	f7ff ff20 	bl	176c <d_encoding>
    192c:	2115      	movs	r1, #21
    192e:	4602      	mov	r2, r0
    1930:	4620      	mov	r0, r4
    1932:	e76a      	b.n	180a <d_encoding+0x9e>
    1934:	f104 000c 	add.w	r0, r4, #12
    1938:	f7ff fe48 	bl	15cc <d_number.clone.0>
    193c:	2801      	cmp	r0, #1
    193e:	dd55      	ble.n	19ec <d_encoding+0x280>
    1940:	68e5      	ldr	r5, [r4, #12]
    1942:	782e      	ldrb	r6, [r5, #0]
    1944:	2e00      	cmp	r6, #0
    1946:	f000 80a7 	beq.w	1a98 <d_encoding+0x32c>
    194a:	3501      	adds	r5, #1
    194c:	2e5f      	cmp	r6, #95	; 0x5f
    194e:	60e5      	str	r5, [r4, #12]
    1950:	d14c      	bne.n	19ec <d_encoding+0x280>
    1952:	1e46      	subs	r6, r0, #1
    1954:	f04f 0800 	mov.w	r8, #0
    1958:	e000      	b.n	195c <d_encoding+0x1f0>
    195a:	4698      	mov	r8, r3
    195c:	782f      	ldrb	r7, [r5, #0]
    195e:	2f00      	cmp	r7, #0
    1960:	d03e      	beq.n	19e0 <d_encoding+0x274>
    1962:	2f24      	cmp	r7, #36	; 0x24
    1964:	d11c      	bne.n	19a0 <d_encoding+0x234>
    1966:	786b      	ldrb	r3, [r5, #1]
    1968:	2b53      	cmp	r3, #83	; 0x53
    196a:	d004      	beq.n	1976 <d_encoding+0x20a>
    196c:	2b5f      	cmp	r3, #95	; 0x5f
    196e:	d004      	beq.n	197a <d_encoding+0x20e>
    1970:	2b24      	cmp	r3, #36	; 0x24
    1972:	d13b      	bne.n	19ec <d_encoding+0x280>
    1974:	e002      	b.n	197c <d_encoding+0x210>
    1976:	272f      	movs	r7, #47	; 0x2f
    1978:	e000      	b.n	197c <d_encoding+0x210>
    197a:	272e      	movs	r7, #46	; 0x2e
    197c:	4620      	mov	r0, r4
    197e:	f7ff fc4f 	bl	1220 <d_make_empty>
    1982:	4603      	mov	r3, r0
    1984:	b110      	cbz	r0, 198c <d_encoding+0x220>
    1986:	2239      	movs	r2, #57	; 0x39
    1988:	6047      	str	r7, [r0, #4]
    198a:	7002      	strb	r2, [r0, #0]
    198c:	68e5      	ldr	r5, [r4, #12]
    198e:	3502      	adds	r5, #2
    1990:	60e5      	str	r5, [r4, #12]
    1992:	b33b      	cbz	r3, 19e4 <d_encoding+0x278>
    1994:	3e02      	subs	r6, #2
    1996:	e013      	b.n	19c0 <d_encoding+0x254>
    1998:	3701      	adds	r7, #1
    199a:	42b7      	cmp	r7, r6
    199c:	db01      	blt.n	19a2 <d_encoding+0x236>
    199e:	e004      	b.n	19aa <d_encoding+0x23e>
    19a0:	2700      	movs	r7, #0
    19a2:	5deb      	ldrb	r3, [r5, r7]
    19a4:	b10b      	cbz	r3, 19aa <d_encoding+0x23e>
    19a6:	2b24      	cmp	r3, #36	; 0x24
    19a8:	d1f6      	bne.n	1998 <d_encoding+0x22c>
    19aa:	4629      	mov	r1, r5
    19ac:	4620      	mov	r0, r4
    19ae:	463a      	mov	r2, r7
    19b0:	f7ff fc83 	bl	12ba <d_make_name>
    19b4:	68e5      	ldr	r5, [r4, #12]
    19b6:	19ed      	adds	r5, r5, r7
    19b8:	60e5      	str	r5, [r4, #12]
    19ba:	4603      	mov	r3, r0
    19bc:	b1a0      	cbz	r0, 19e8 <d_encoding+0x27c>
    19be:	1bf6      	subs	r6, r6, r7
    19c0:	f1b8 0f00 	cmp.w	r8, #0
    19c4:	d006      	beq.n	19d4 <d_encoding+0x268>
    19c6:	4620      	mov	r0, r4
    19c8:	2138      	movs	r1, #56	; 0x38
    19ca:	4642      	mov	r2, r8
    19cc:	f7ff fc36 	bl	123c <d_make_comp>
    19d0:	4603      	mov	r3, r0
    19d2:	b148      	cbz	r0, 19e8 <d_encoding+0x27c>
    19d4:	2e00      	cmp	r6, #0
    19d6:	dcc0      	bgt.n	195a <d_encoding+0x1ee>
    19d8:	4620      	mov	r0, r4
    19da:	2137      	movs	r1, #55	; 0x37
    19dc:	461a      	mov	r2, r3
    19de:	e714      	b.n	180a <d_encoding+0x9e>
    19e0:	463e      	mov	r6, r7
    19e2:	e059      	b.n	1a98 <d_encoding+0x32c>
    19e4:	461e      	mov	r6, r3
    19e6:	e057      	b.n	1a98 <d_encoding+0x32c>
    19e8:	4606      	mov	r6, r0
    19ea:	e055      	b.n	1a98 <d_encoding+0x32c>
    19ec:	2600      	movs	r6, #0
    19ee:	e053      	b.n	1a98 <d_encoding+0x32c>
    19f0:	f000 f905 	bl	1bfe <d_name>
    19f4:	4606      	mov	r6, r0
    19f6:	b1c0      	cbz	r0, 1a2a <d_encoding+0x2be>
    19f8:	b1bd      	cbz	r5, 1a2a <d_encoding+0x2be>
    19fa:	68a3      	ldr	r3, [r4, #8]
    19fc:	f013 0f01 	tst.w	r3, #1
    1a00:	d113      	bne.n	1a2a <d_encoding+0x2be>
    1a02:	e000      	b.n	1a06 <d_encoding+0x29a>
    1a04:	6876      	ldr	r6, [r6, #4]
    1a06:	7833      	ldrb	r3, [r6, #0]
    1a08:	f1a3 021a 	sub.w	r2, r3, #26
    1a0c:	b2d2      	uxtb	r2, r2
    1a0e:	2a02      	cmp	r2, #2
    1a10:	d9f8      	bls.n	1a04 <d_encoding+0x298>
    1a12:	2b02      	cmp	r3, #2
    1a14:	d140      	bne.n	1a98 <d_encoding+0x32c>
    1a16:	68b3      	ldr	r3, [r6, #8]
    1a18:	e000      	b.n	1a1c <d_encoding+0x2b0>
    1a1a:	685b      	ldr	r3, [r3, #4]
    1a1c:	781a      	ldrb	r2, [r3, #0]
    1a1e:	3a1a      	subs	r2, #26
    1a20:	b2d2      	uxtb	r2, r2
    1a22:	2a02      	cmp	r2, #2
    1a24:	d9f9      	bls.n	1a1a <d_encoding+0x2ae>
    1a26:	60b3      	str	r3, [r6, #8]
    1a28:	e036      	b.n	1a98 <d_encoding+0x32c>
    1a2a:	68e3      	ldr	r3, [r4, #12]
    1a2c:	781b      	ldrb	r3, [r3, #0]
    1a2e:	2e00      	cmp	r6, #0
    1a30:	d032      	beq.n	1a98 <d_encoding+0x32c>
    1a32:	2b00      	cmp	r3, #0
    1a34:	d030      	beq.n	1a98 <d_encoding+0x32c>
    1a36:	2b45      	cmp	r3, #69	; 0x45
    1a38:	d02e      	beq.n	1a98 <d_encoding+0x32c>
    1a3a:	4631      	mov	r1, r6
    1a3c:	780b      	ldrb	r3, [r1, #0]
    1a3e:	2b04      	cmp	r3, #4
    1a40:	d004      	beq.n	1a4c <d_encoding+0x2e0>
    1a42:	d31c      	bcc.n	1a7e <d_encoding+0x312>
    1a44:	3b1a      	subs	r3, #26
    1a46:	2b02      	cmp	r3, #2
    1a48:	d819      	bhi.n	1a7e <d_encoding+0x312>
    1a4a:	e014      	b.n	1a76 <d_encoding+0x30a>
    1a4c:	6849      	ldr	r1, [r1, #4]
    1a4e:	b179      	cbz	r1, 1a70 <d_encoding+0x304>
    1a50:	780b      	ldrb	r3, [r1, #0]
    1a52:	2b08      	cmp	r3, #8
    1a54:	d805      	bhi.n	1a62 <d_encoding+0x2f6>
    1a56:	2b07      	cmp	r3, #7
    1a58:	d209      	bcs.n	1a6e <d_encoding+0x302>
    1a5a:	3b01      	subs	r3, #1
    1a5c:	2b01      	cmp	r3, #1
    1a5e:	d802      	bhi.n	1a66 <d_encoding+0x2fa>
    1a60:	e003      	b.n	1a6a <d_encoding+0x2fe>
    1a62:	2b2e      	cmp	r3, #46	; 0x2e
    1a64:	d003      	beq.n	1a6e <d_encoding+0x302>
    1a66:	2100      	movs	r1, #0
    1a68:	e002      	b.n	1a70 <d_encoding+0x304>
    1a6a:	6889      	ldr	r1, [r1, #8]
    1a6c:	e7ef      	b.n	1a4e <d_encoding+0x2e2>
    1a6e:	2101      	movs	r1, #1
    1a70:	f081 0101 	eor.w	r1, r1, #1
    1a74:	e004      	b.n	1a80 <d_encoding+0x314>
    1a76:	6849      	ldr	r1, [r1, #4]
    1a78:	2900      	cmp	r1, #0
    1a7a:	d1df      	bne.n	1a3c <d_encoding+0x2d0>
    1a7c:	e000      	b.n	1a80 <d_encoding+0x314>
    1a7e:	2100      	movs	r1, #0
    1a80:	4620      	mov	r0, r4
    1a82:	f000 fc5e 	bl	2342 <d_bare_function_type>
    1a86:	2103      	movs	r1, #3
    1a88:	4632      	mov	r2, r6
    1a8a:	4605      	mov	r5, r0
    1a8c:	4620      	mov	r0, r4
    1a8e:	462b      	mov	r3, r5
    1a90:	e8bd 41f0 	ldmia.w	sp!, {r4, r5, r6, r7, r8, lr}
    1a94:	f7ff bbd2 	b.w	123c <d_make_comp>
    1a98:	4630      	mov	r0, r6
    1a9a:	e8bd 81f0 	ldmia.w	sp!, {r4, r5, r6, r7, r8, pc}

00001a9e <d_mangled_name>:
    1a9e:	68c3      	ldr	r3, [r0, #12]
    1aa0:	781a      	ldrb	r2, [r3, #0]
    1aa2:	2a5f      	cmp	r2, #95	; 0x5f
    1aa4:	d10a      	bne.n	1abc <d_mangled_name+0x1e>
    1aa6:	3301      	adds	r3, #1
    1aa8:	60c3      	str	r3, [r0, #12]
    1aaa:	68c3      	ldr	r3, [r0, #12]
    1aac:	781a      	ldrb	r2, [r3, #0]
    1aae:	2a5a      	cmp	r2, #90	; 0x5a
    1ab0:	d102      	bne.n	1ab8 <d_mangled_name+0x1a>
    1ab2:	3301      	adds	r3, #1
    1ab4:	60c3      	str	r3, [r0, #12]
    1ab6:	e659      	b.n	176c <d_encoding>
    1ab8:	2000      	movs	r0, #0
    1aba:	4770      	bx	lr
    1abc:	2900      	cmp	r1, #0
    1abe:	d1fb      	bne.n	1ab8 <d_mangled_name+0x1a>
    1ac0:	e7f3      	b.n	1aaa <d_mangled_name+0xc>

00001ac2 <d_expr_primary>:
    1ac2:	68c3      	ldr	r3, [r0, #12]
    1ac4:	b570      	push	{r4, r5, r6, lr}
    1ac6:	4604      	mov	r4, r0
    1ac8:	781a      	ldrb	r2, [r3, #0]
    1aca:	2a4c      	cmp	r2, #76	; 0x4c
    1acc:	d13d      	bne.n	1b4a <d_expr_primary+0x88>
    1ace:	1c5a      	adds	r2, r3, #1
    1ad0:	60c2      	str	r2, [r0, #12]
    1ad2:	785b      	ldrb	r3, [r3, #1]
    1ad4:	2b5f      	cmp	r3, #95	; 0x5f
    1ad6:	d001      	beq.n	1adc <d_expr_primary+0x1a>
    1ad8:	2b5a      	cmp	r3, #90	; 0x5a
    1ada:	d104      	bne.n	1ae6 <d_expr_primary+0x24>
    1adc:	4620      	mov	r0, r4
    1ade:	2100      	movs	r1, #0
    1ae0:	f7ff ffdd 	bl	1a9e <d_mangled_name>
    1ae4:	e02a      	b.n	1b3c <d_expr_primary+0x7a>
    1ae6:	f000 f9bc 	bl	1e62 <d_type>
    1aea:	4605      	mov	r5, r0
    1aec:	2800      	cmp	r0, #0
    1aee:	d02e      	beq.n	1b4e <d_expr_primary+0x8c>
    1af0:	7803      	ldrb	r3, [r0, #0]
    1af2:	2b23      	cmp	r3, #35	; 0x23
    1af4:	d106      	bne.n	1b04 <d_expr_primary+0x42>
    1af6:	6843      	ldr	r3, [r0, #4]
    1af8:	7c1a      	ldrb	r2, [r3, #16]
    1afa:	b11a      	cbz	r2, 1b04 <d_expr_primary+0x42>
    1afc:	6b22      	ldr	r2, [r4, #48]	; 0x30
    1afe:	685b      	ldr	r3, [r3, #4]
    1b00:	1ad3      	subs	r3, r2, r3
    1b02:	6323      	str	r3, [r4, #48]	; 0x30
    1b04:	68e3      	ldr	r3, [r4, #12]
    1b06:	781a      	ldrb	r2, [r3, #0]
    1b08:	2a6e      	cmp	r2, #110	; 0x6e
    1b0a:	d103      	bne.n	1b14 <d_expr_primary+0x52>
    1b0c:	3301      	adds	r3, #1
    1b0e:	2636      	movs	r6, #54	; 0x36
    1b10:	60e3      	str	r3, [r4, #12]
    1b12:	e000      	b.n	1b16 <d_expr_primary+0x54>
    1b14:	2635      	movs	r6, #53	; 0x35
    1b16:	68e1      	ldr	r1, [r4, #12]
    1b18:	e002      	b.n	1b20 <d_expr_primary+0x5e>
    1b1a:	b1d0      	cbz	r0, 1b52 <d_expr_primary+0x90>
    1b1c:	3201      	adds	r2, #1
    1b1e:	60e2      	str	r2, [r4, #12]
    1b20:	68e2      	ldr	r2, [r4, #12]
    1b22:	7810      	ldrb	r0, [r2, #0]
    1b24:	2845      	cmp	r0, #69	; 0x45
    1b26:	d1f8      	bne.n	1b1a <d_expr_primary+0x58>
    1b28:	1a52      	subs	r2, r2, r1
    1b2a:	4620      	mov	r0, r4
    1b2c:	f7ff fbc5 	bl	12ba <d_make_name>
    1b30:	4631      	mov	r1, r6
    1b32:	462a      	mov	r2, r5
    1b34:	4603      	mov	r3, r0
    1b36:	4620      	mov	r0, r4
    1b38:	f7ff fb80 	bl	123c <d_make_comp>
    1b3c:	68e3      	ldr	r3, [r4, #12]
    1b3e:	781a      	ldrb	r2, [r3, #0]
    1b40:	2a45      	cmp	r2, #69	; 0x45
    1b42:	d105      	bne.n	1b50 <d_expr_primary+0x8e>
    1b44:	3301      	adds	r3, #1
    1b46:	60e3      	str	r3, [r4, #12]
    1b48:	bd70      	pop	{r4, r5, r6, pc}
    1b4a:	2000      	movs	r0, #0
    1b4c:	bd70      	pop	{r4, r5, r6, pc}
    1b4e:	bd70      	pop	{r4, r5, r6, pc}
    1b50:	2000      	movs	r0, #0
    1b52:	bd70      	pop	{r4, r5, r6, pc}

00001b54 <d_template_args>:
    1b54:	68c3      	ldr	r3, [r0, #12]
    1b56:	b573      	push	{r0, r1, r4, r5, r6, lr}
    1b58:	4604      	mov	r4, r0
    1b5a:	781a      	ldrb	r2, [r3, #0]
    1b5c:	6ac6      	ldr	r6, [r0, #44]	; 0x2c
    1b5e:	2a49      	cmp	r2, #73	; 0x49
    1b60:	d148      	bne.n	1bf4 <d_template_args+0xa0>
    1b62:	1c5a      	adds	r2, r3, #1
    1b64:	60c2      	str	r2, [r0, #12]
    1b66:	785b      	ldrb	r3, [r3, #1]
    1b68:	2b45      	cmp	r3, #69	; 0x45
    1b6a:	d109      	bne.n	1b80 <d_template_args+0x2c>
    1b6c:	3201      	adds	r2, #1
    1b6e:	60c2      	str	r2, [r0, #12]
    1b70:	2200      	movs	r2, #0
    1b72:	212b      	movs	r1, #43	; 0x2b
    1b74:	4613      	mov	r3, r2
    1b76:	b002      	add	sp, #8
    1b78:	e8bd 4070 	ldmia.w	sp!, {r4, r5, r6, lr}
    1b7c:	f7ff bb5e 	b.w	123c <d_make_comp>
    1b80:	ad02      	add	r5, sp, #8
    1b82:	2300      	movs	r3, #0
    1b84:	f845 3d04 	str.w	r3, [r5, #-4]!
    1b88:	68e2      	ldr	r2, [r4, #12]
    1b8a:	7813      	ldrb	r3, [r2, #0]
    1b8c:	2b4c      	cmp	r3, #76	; 0x4c
    1b8e:	d011      	beq.n	1bb4 <d_template_args+0x60>
    1b90:	2b58      	cmp	r3, #88	; 0x58
    1b92:	d002      	beq.n	1b9a <d_template_args+0x46>
    1b94:	2b49      	cmp	r3, #73	; 0x49
    1b96:	d115      	bne.n	1bc4 <d_template_args+0x70>
    1b98:	e010      	b.n	1bbc <d_template_args+0x68>
    1b9a:	3201      	adds	r2, #1
    1b9c:	4620      	mov	r0, r4
    1b9e:	60e2      	str	r2, [r4, #12]
    1ba0:	f000 fd15 	bl	25ce <d_expression>
    1ba4:	68e3      	ldr	r3, [r4, #12]
    1ba6:	7819      	ldrb	r1, [r3, #0]
    1ba8:	2945      	cmp	r1, #69	; 0x45
    1baa:	4602      	mov	r2, r0
    1bac:	d122      	bne.n	1bf4 <d_template_args+0xa0>
    1bae:	3301      	adds	r3, #1
    1bb0:	60e3      	str	r3, [r4, #12]
    1bb2:	e00b      	b.n	1bcc <d_template_args+0x78>
    1bb4:	4620      	mov	r0, r4
    1bb6:	f7ff ff84 	bl	1ac2 <d_expr_primary>
    1bba:	e006      	b.n	1bca <d_template_args+0x76>
    1bbc:	4620      	mov	r0, r4
    1bbe:	f7ff ffc9 	bl	1b54 <d_template_args>
    1bc2:	e002      	b.n	1bca <d_template_args+0x76>
    1bc4:	4620      	mov	r0, r4
    1bc6:	f000 f94c 	bl	1e62 <d_type>
    1bca:	4602      	mov	r2, r0
    1bcc:	b1a2      	cbz	r2, 1bf8 <d_template_args+0xa4>
    1bce:	4620      	mov	r0, r4
    1bd0:	212b      	movs	r1, #43	; 0x2b
    1bd2:	2300      	movs	r3, #0
    1bd4:	f7ff fb32 	bl	123c <d_make_comp>
    1bd8:	6028      	str	r0, [r5, #0]
    1bda:	b170      	cbz	r0, 1bfa <d_template_args+0xa6>
    1bdc:	68e3      	ldr	r3, [r4, #12]
    1bde:	781a      	ldrb	r2, [r3, #0]
    1be0:	2a45      	cmp	r2, #69	; 0x45
    1be2:	d002      	beq.n	1bea <d_template_args+0x96>
    1be4:	f100 0508 	add.w	r5, r0, #8
    1be8:	e7ce      	b.n	1b88 <d_template_args+0x34>
    1bea:	3301      	adds	r3, #1
    1bec:	62e6      	str	r6, [r4, #44]	; 0x2c
    1bee:	60e3      	str	r3, [r4, #12]
    1bf0:	9801      	ldr	r0, [sp, #4]
    1bf2:	e002      	b.n	1bfa <d_template_args+0xa6>
    1bf4:	2000      	movs	r0, #0
    1bf6:	e000      	b.n	1bfa <d_template_args+0xa6>
    1bf8:	4610      	mov	r0, r2
    1bfa:	b002      	add	sp, #8
    1bfc:	bd70      	pop	{r4, r5, r6, pc}

00001bfe <d_name>:
    1bfe:	68c3      	ldr	r3, [r0, #12]
    1c00:	e92d 41f3 	stmdb	sp!, {r0, r1, r4, r5, r6, r7, r8, lr}
    1c04:	4604      	mov	r4, r0
    1c06:	781a      	ldrb	r2, [r3, #0]
    1c08:	3a4c      	subs	r2, #76	; 0x4c
    1c0a:	2a0e      	cmp	r2, #14
    1c0c:	f200 8105 	bhi.w	1e1a <d_name+0x21c>
    1c10:	e8df f012 	tbh	[pc, r2, lsl #1]
    1c14:	010300d7 	.word	0x010300d7
    1c18:	0103000f 	.word	0x0103000f
    1c1c:	01030103 	.word	0x01030103
    1c20:	00da0103 	.word	0x00da0103
    1c24:	00d70103 	.word	0x00d70103
    1c28:	01030103 	.word	0x01030103
    1c2c:	01030103 	.word	0x01030103
    1c30:	0087      	.short	0x0087
    1c32:	3301      	adds	r3, #1
    1c34:	a901      	add	r1, sp, #4
    1c36:	60c3      	str	r3, [r0, #12]
    1c38:	2201      	movs	r2, #1
    1c3a:	f7ff fb66 	bl	130a <d_cv_qualifiers>
    1c3e:	4606      	mov	r6, r0
    1c40:	2800      	cmp	r0, #0
    1c42:	f000 8103 	beq.w	1e4c <d_name+0x24e>
    1c46:	f04f 0800 	mov.w	r8, #0
    1c4a:	e000      	b.n	1c4e <d_name+0x50>
    1c4c:	46b8      	mov	r8, r7
    1c4e:	68e3      	ldr	r3, [r4, #12]
    1c50:	781d      	ldrb	r5, [r3, #0]
    1c52:	2d00      	cmp	r5, #0
    1c54:	d052      	beq.n	1cfc <d_name+0xfe>
    1c56:	f1a5 0230 	sub.w	r2, r5, #48	; 0x30
    1c5a:	b2d2      	uxtb	r2, r2
    1c5c:	2a09      	cmp	r2, #9
    1c5e:	d90d      	bls.n	1c7c <d_name+0x7e>
    1c60:	f1a5 0261 	sub.w	r2, r5, #97	; 0x61
    1c64:	b2d2      	uxtb	r2, r2
    1c66:	2a19      	cmp	r2, #25
    1c68:	d908      	bls.n	1c7c <d_name+0x7e>
    1c6a:	f1a5 0243 	sub.w	r2, r5, #67	; 0x43
    1c6e:	b2d1      	uxtb	r1, r2
    1c70:	2912      	cmp	r1, #18
    1c72:	d807      	bhi.n	1c84 <d_name+0x86>
    1c74:	4977      	ldr	r1, [pc, #476]	; (1e54 <d_name+0x256>)
    1c76:	b252      	sxtb	r2, r2
    1c78:	4091      	lsls	r1, r2
    1c7a:	d503      	bpl.n	1c84 <d_name+0x86>
    1c7c:	4620      	mov	r0, r4
    1c7e:	f000 fbe1 	bl	2444 <d_unqualified_name>
    1c82:	e016      	b.n	1cb2 <d_name+0xb4>
    1c84:	2d53      	cmp	r5, #83	; 0x53
    1c86:	d104      	bne.n	1c92 <d_name+0x94>
    1c88:	4620      	mov	r0, r4
    1c8a:	2101      	movs	r1, #1
    1c8c:	f7ff fb81 	bl	1392 <d_substitution>
    1c90:	e00f      	b.n	1cb2 <d_name+0xb4>
    1c92:	2d49      	cmp	r5, #73	; 0x49
    1c94:	d108      	bne.n	1ca8 <d_name+0xaa>
    1c96:	f1b8 0f00 	cmp.w	r8, #0
    1c9a:	d033      	beq.n	1d04 <d_name+0x106>
    1c9c:	4620      	mov	r0, r4
    1c9e:	f7ff ff59 	bl	1b54 <d_template_args>
    1ca2:	2104      	movs	r1, #4
    1ca4:	4607      	mov	r7, r0
    1ca6:	e015      	b.n	1cd4 <d_name+0xd6>
    1ca8:	2d54      	cmp	r5, #84	; 0x54
    1caa:	d107      	bne.n	1cbc <d_name+0xbe>
    1cac:	4620      	mov	r0, r4
    1cae:	f7ff fcf0 	bl	1692 <d_template_param>
    1cb2:	4607      	mov	r7, r0
    1cb4:	f1b8 0f00 	cmp.w	r8, #0
    1cb8:	d10b      	bne.n	1cd2 <d_name+0xd4>
    1cba:	e011      	b.n	1ce0 <d_name+0xe2>
    1cbc:	2d45      	cmp	r5, #69	; 0x45
    1cbe:	d021      	beq.n	1d04 <d_name+0x106>
    1cc0:	2d4d      	cmp	r5, #77	; 0x4d
    1cc2:	d11d      	bne.n	1d00 <d_name+0x102>
    1cc4:	f1b8 0f00 	cmp.w	r8, #0
    1cc8:	d01c      	beq.n	1d04 <d_name+0x106>
    1cca:	3301      	adds	r3, #1
    1ccc:	4647      	mov	r7, r8
    1cce:	60e3      	str	r3, [r4, #12]
    1cd0:	e7bc      	b.n	1c4c <d_name+0x4e>
    1cd2:	2101      	movs	r1, #1
    1cd4:	463b      	mov	r3, r7
    1cd6:	4620      	mov	r0, r4
    1cd8:	4642      	mov	r2, r8
    1cda:	f7ff faaf 	bl	123c <d_make_comp>
    1cde:	4607      	mov	r7, r0
    1ce0:	2d53      	cmp	r5, #83	; 0x53
    1ce2:	d0b3      	beq.n	1c4c <d_name+0x4e>
    1ce4:	68e3      	ldr	r3, [r4, #12]
    1ce6:	781b      	ldrb	r3, [r3, #0]
    1ce8:	2b45      	cmp	r3, #69	; 0x45
    1cea:	d0af      	beq.n	1c4c <d_name+0x4e>
    1cec:	4620      	mov	r0, r4
    1cee:	4639      	mov	r1, r7
    1cf0:	f7ff fb3f 	bl	1372 <d_add_substitution>
    1cf4:	2800      	cmp	r0, #0
    1cf6:	d1a9      	bne.n	1c4c <d_name+0x4e>
    1cf8:	4680      	mov	r8, r0
    1cfa:	e003      	b.n	1d04 <d_name+0x106>
    1cfc:	46a8      	mov	r8, r5
    1cfe:	e001      	b.n	1d04 <d_name+0x106>
    1d00:	f04f 0800 	mov.w	r8, #0
    1d04:	f8c6 8000 	str.w	r8, [r6]
    1d08:	f1b8 0f00 	cmp.w	r8, #0
    1d0c:	d007      	beq.n	1d1e <d_name+0x120>
    1d0e:	68e3      	ldr	r3, [r4, #12]
    1d10:	781a      	ldrb	r2, [r3, #0]
    1d12:	2a45      	cmp	r2, #69	; 0x45
    1d14:	d153      	bne.n	1dbe <d_name+0x1c0>
    1d16:	3301      	adds	r3, #1
    1d18:	9e01      	ldr	r6, [sp, #4]
    1d1a:	60e3      	str	r3, [r4, #12]
    1d1c:	e096      	b.n	1e4c <d_name+0x24e>
    1d1e:	4646      	mov	r6, r8
    1d20:	e094      	b.n	1e4c <d_name+0x24e>
    1d22:	3301      	adds	r3, #1
    1d24:	2100      	movs	r1, #0
    1d26:	60c3      	str	r3, [r0, #12]
    1d28:	f7ff fd20 	bl	176c <d_encoding>
    1d2c:	68e3      	ldr	r3, [r4, #12]
    1d2e:	781a      	ldrb	r2, [r3, #0]
    1d30:	2a45      	cmp	r2, #69	; 0x45
    1d32:	4607      	mov	r7, r0
    1d34:	d143      	bne.n	1dbe <d_name+0x1c0>
    1d36:	1c5a      	adds	r2, r3, #1
    1d38:	60e2      	str	r2, [r4, #12]
    1d3a:	785b      	ldrb	r3, [r3, #1]
    1d3c:	2b73      	cmp	r3, #115	; 0x73
    1d3e:	d110      	bne.n	1d62 <d_name+0x164>
    1d40:	3201      	adds	r2, #1
    1d42:	4620      	mov	r0, r4
    1d44:	60e2      	str	r2, [r4, #12]
    1d46:	f7ff fcbf 	bl	16c8 <d_discriminator>
    1d4a:	2800      	cmp	r0, #0
    1d4c:	d07d      	beq.n	1e4a <d_name+0x24c>
    1d4e:	4942      	ldr	r1, [pc, #264]	; (1e58 <d_name+0x25a>)
    1d50:	220e      	movs	r2, #14
    1d52:	4620      	mov	r0, r4
    1d54:	f7ff fab1 	bl	12ba <d_make_name>
    1d58:	2102      	movs	r1, #2
    1d5a:	463a      	mov	r2, r7
    1d5c:	4603      	mov	r3, r0
    1d5e:	4620      	mov	r0, r4
    1d60:	e06e      	b.n	1e40 <d_name+0x242>
    1d62:	2b64      	cmp	r3, #100	; 0x64
    1d64:	d108      	bne.n	1d78 <d_name+0x17a>
    1d66:	3201      	adds	r2, #1
    1d68:	4620      	mov	r0, r4
    1d6a:	60e2      	str	r2, [r4, #12]
    1d6c:	f7ff fc76 	bl	165c <d_compact_number>
    1d70:	f1b0 0800 	subs.w	r8, r0, #0
    1d74:	da02      	bge.n	1d7c <d_name+0x17e>
    1d76:	e022      	b.n	1dbe <d_name+0x1c0>
    1d78:	f04f 38ff 	mov.w	r8, #4294967295
    1d7c:	4620      	mov	r0, r4
    1d7e:	f7ff ff3e 	bl	1bfe <d_name>
    1d82:	4605      	mov	r5, r0
    1d84:	b148      	cbz	r0, 1d9a <d_name+0x19c>
    1d86:	7803      	ldrb	r3, [r0, #0]
    1d88:	2b3e      	cmp	r3, #62	; 0x3e
    1d8a:	d006      	beq.n	1d9a <d_name+0x19c>
    1d8c:	2b40      	cmp	r3, #64	; 0x40
    1d8e:	d004      	beq.n	1d9a <d_name+0x19c>
    1d90:	4620      	mov	r0, r4
    1d92:	f7ff fc99 	bl	16c8 <d_discriminator>
    1d96:	2800      	cmp	r0, #0
    1d98:	d057      	beq.n	1e4a <d_name+0x24c>
    1d9a:	f1b8 3fff 	cmp.w	r8, #4294967295
    1d9e:	d009      	beq.n	1db4 <d_name+0x1b6>
    1da0:	4620      	mov	r0, r4
    1da2:	f7ff fa3d 	bl	1220 <d_make_empty>
    1da6:	b120      	cbz	r0, 1db2 <d_name+0x1b4>
    1da8:	233f      	movs	r3, #63	; 0x3f
    1daa:	f8c0 8008 	str.w	r8, [r0, #8]
    1dae:	7003      	strb	r3, [r0, #0]
    1db0:	6045      	str	r5, [r0, #4]
    1db2:	4605      	mov	r5, r0
    1db4:	4620      	mov	r0, r4
    1db6:	2102      	movs	r1, #2
    1db8:	463a      	mov	r2, r7
    1dba:	462b      	mov	r3, r5
    1dbc:	e040      	b.n	1e40 <d_name+0x242>
    1dbe:	2600      	movs	r6, #0
    1dc0:	e044      	b.n	1e4c <d_name+0x24e>
    1dc2:	f000 fb3f 	bl	2444 <d_unqualified_name>
    1dc6:	e040      	b.n	1e4a <d_name+0x24c>
    1dc8:	785a      	ldrb	r2, [r3, #1]
    1dca:	2a74      	cmp	r2, #116	; 0x74
    1dcc:	d005      	beq.n	1dda <d_name+0x1dc>
    1dce:	2100      	movs	r1, #0
    1dd0:	2501      	movs	r5, #1
    1dd2:	f7ff fade 	bl	1392 <d_substitution>
    1dd6:	4606      	mov	r6, r0
    1dd8:	e014      	b.n	1e04 <d_name+0x206>
    1dda:	3302      	adds	r3, #2
    1ddc:	491f      	ldr	r1, [pc, #124]	; (1e5c <d_name+0x25e>)
    1dde:	60c3      	str	r3, [r0, #12]
    1de0:	2203      	movs	r2, #3
    1de2:	f7ff fa6a 	bl	12ba <d_make_name>
    1de6:	4605      	mov	r5, r0
    1de8:	4620      	mov	r0, r4
    1dea:	f000 fb2b 	bl	2444 <d_unqualified_name>
    1dee:	462a      	mov	r2, r5
    1df0:	2101      	movs	r1, #1
    1df2:	2500      	movs	r5, #0
    1df4:	4603      	mov	r3, r0
    1df6:	4620      	mov	r0, r4
    1df8:	f7ff fa20 	bl	123c <d_make_comp>
    1dfc:	6b23      	ldr	r3, [r4, #48]	; 0x30
    1dfe:	3303      	adds	r3, #3
    1e00:	6323      	str	r3, [r4, #48]	; 0x30
    1e02:	4606      	mov	r6, r0
    1e04:	68e3      	ldr	r3, [r4, #12]
    1e06:	781b      	ldrb	r3, [r3, #0]
    1e08:	2b49      	cmp	r3, #73	; 0x49
    1e0a:	d11f      	bne.n	1e4c <d_name+0x24e>
    1e0c:	b98d      	cbnz	r5, 1e32 <d_name+0x234>
    1e0e:	4620      	mov	r0, r4
    1e10:	4631      	mov	r1, r6
    1e12:	f7ff faae 	bl	1372 <d_add_substitution>
    1e16:	b960      	cbnz	r0, 1e32 <d_name+0x234>
    1e18:	e015      	b.n	1e46 <d_name+0x248>
    1e1a:	f000 fb13 	bl	2444 <d_unqualified_name>
    1e1e:	68e3      	ldr	r3, [r4, #12]
    1e20:	781b      	ldrb	r3, [r3, #0]
    1e22:	2b49      	cmp	r3, #73	; 0x49
    1e24:	4606      	mov	r6, r0
    1e26:	d111      	bne.n	1e4c <d_name+0x24e>
    1e28:	4620      	mov	r0, r4
    1e2a:	4631      	mov	r1, r6
    1e2c:	f7ff faa1 	bl	1372 <d_add_substitution>
    1e30:	b158      	cbz	r0, 1e4a <d_name+0x24c>
    1e32:	4620      	mov	r0, r4
    1e34:	f7ff fe8e 	bl	1b54 <d_template_args>
    1e38:	2104      	movs	r1, #4
    1e3a:	4632      	mov	r2, r6
    1e3c:	4603      	mov	r3, r0
    1e3e:	4620      	mov	r0, r4
    1e40:	f7ff f9fc 	bl	123c <d_make_comp>
    1e44:	e001      	b.n	1e4a <d_name+0x24c>
    1e46:	462e      	mov	r6, r5
    1e48:	e000      	b.n	1e4c <d_name+0x24e>
    1e4a:	4606      	mov	r6, r0
    1e4c:	4630      	mov	r0, r6
    1e4e:	e8bd 81fc 	ldmia.w	sp!, {r2, r3, r4, r5, r6, r7, r8, pc}
    1e52:	bf00      	nop
    1e54:	c0402000 	.word	0xc0402000
    1e58:	0000fbcb 	.word	0x0000fbcb
    1e5c:	0000fbda 	.word	0x0000fbda

00001e60 <d_class_enum_type>:
    1e60:	e6cd      	b.n	1bfe <d_name>

00001e62 <d_type>:
    1e62:	b5f7      	push	{r0, r1, r2, r4, r5, r6, r7, lr}
    1e64:	4604      	mov	r4, r0
    1e66:	68c2      	ldr	r2, [r0, #12]
    1e68:	7813      	ldrb	r3, [r2, #0]
    1e6a:	2b56      	cmp	r3, #86	; 0x56
    1e6c:	d003      	beq.n	1e76 <d_type+0x14>
    1e6e:	2b72      	cmp	r3, #114	; 0x72
    1e70:	d001      	beq.n	1e76 <d_type+0x14>
    1e72:	2b4b      	cmp	r3, #75	; 0x4b
    1e74:	d110      	bne.n	1e98 <d_type+0x36>
    1e76:	4620      	mov	r0, r4
    1e78:	a901      	add	r1, sp, #4
    1e7a:	2200      	movs	r2, #0
    1e7c:	f7ff fa45 	bl	130a <d_cv_qualifiers>
    1e80:	4605      	mov	r5, r0
    1e82:	2800      	cmp	r0, #0
    1e84:	f000 8219 	beq.w	22ba <d_type+0x458>
    1e88:	4620      	mov	r0, r4
    1e8a:	f7ff ffea 	bl	1e62 <d_type>
    1e8e:	6028      	str	r0, [r5, #0]
    1e90:	2800      	cmp	r0, #0
    1e92:	f000 8211 	beq.w	22b8 <d_type+0x456>
    1e96:	e212      	b.n	22be <d_type+0x45c>
    1e98:	f1a3 0130 	sub.w	r1, r3, #48	; 0x30
    1e9c:	294a      	cmp	r1, #74	; 0x4a
    1e9e:	f200 8209 	bhi.w	22b4 <d_type+0x452>
    1ea2:	e8df f011 	tbh	[pc, r1, lsl #1]
    1ea6:	0077      	.short	0x0077
    1ea8:	00770077 	.word	0x00770077
    1eac:	00770077 	.word	0x00770077
    1eb0:	00770077 	.word	0x00770077
    1eb4:	00770077 	.word	0x00770077
    1eb8:	02070077 	.word	0x02070077
    1ebc:	02070207 	.word	0x02070207
    1ec0:	02070207 	.word	0x02070207
    1ec4:	02070207 	.word	0x02070207
    1ec8:	0207007b 	.word	0x0207007b
    1ecc:	01490125 	.word	0x01490125
    1ed0:	00650207 	.word	0x00650207
    1ed4:	0207012e 	.word	0x0207012e
    1ed8:	02070207 	.word	0x02070207
    1edc:	02070207 	.word	0x02070207
    1ee0:	007700a8 	.word	0x007700a8
    1ee4:	0113010a 	.word	0x0113010a
    1ee8:	011c0207 	.word	0x011c0207
    1eec:	00cd00df 	.word	0x00cd00df
    1ef0:	0207013b 	.word	0x0207013b
    1ef4:	02070207 	.word	0x02070207
    1ef8:	00770207 	.word	0x00770207
    1efc:	02070207 	.word	0x02070207
    1f00:	02070207 	.word	0x02070207
    1f04:	02070207 	.word	0x02070207
    1f08:	004b004b 	.word	0x004b004b
    1f0c:	004b004b 	.word	0x004b004b
    1f10:	004b004b 	.word	0x004b004b
    1f14:	004b004b 	.word	0x004b004b
    1f18:	004b004b 	.word	0x004b004b
    1f1c:	004b0207 	.word	0x004b0207
    1f20:	004b004b 	.word	0x004b004b
    1f24:	0207004b 	.word	0x0207004b
    1f28:	02070207 	.word	0x02070207
    1f2c:	004b004b 	.word	0x004b004b
    1f30:	004b005c 	.word	0x004b005c
    1f34:	004b004b 	.word	0x004b004b
    1f38:	004b004b 	.word	0x004b004b
    1f3c:	4a93      	ldr	r2, [pc, #588]	; (218c <d_type+0x32a>)
    1f3e:	2114      	movs	r1, #20
    1f40:	4620      	mov	r0, r4
    1f42:	fb01 2103 	mla	r1, r1, r3, r2
    1f46:	f7ff f9c9 	bl	12dc <d_make_builtin_type>
    1f4a:	6b22      	ldr	r2, [r4, #48]	; 0x30
    1f4c:	6843      	ldr	r3, [r0, #4]
    1f4e:	9001      	str	r0, [sp, #4]
    1f50:	685b      	ldr	r3, [r3, #4]
    1f52:	18d3      	adds	r3, r2, r3
    1f54:	6323      	str	r3, [r4, #48]	; 0x30
    1f56:	68e3      	ldr	r3, [r4, #12]
    1f58:	3301      	adds	r3, #1
    1f5a:	60e3      	str	r3, [r4, #12]
    1f5c:	e1a8      	b.n	22b0 <d_type+0x44e>
    1f5e:	3201      	adds	r2, #1
    1f60:	4620      	mov	r0, r4
    1f62:	60e2      	str	r2, [r4, #12]
    1f64:	f7ff fbbf 	bl	16e6 <d_source_name>
    1f68:	2124      	movs	r1, #36	; 0x24
    1f6a:	4602      	mov	r2, r0
    1f6c:	4620      	mov	r0, r4
    1f6e:	e0d0      	b.n	2112 <d_type+0x2b0>
    1f70:	1c53      	adds	r3, r2, #1
    1f72:	60e3      	str	r3, [r4, #12]
    1f74:	7852      	ldrb	r2, [r2, #1]
    1f76:	2a59      	cmp	r2, #89	; 0x59
    1f78:	d101      	bne.n	1f7e <d_type+0x11c>
    1f7a:	3301      	adds	r3, #1
    1f7c:	60e3      	str	r3, [r4, #12]
    1f7e:	2101      	movs	r1, #1
    1f80:	4620      	mov	r0, r4
    1f82:	f000 f9de 	bl	2342 <d_bare_function_type>
    1f86:	68e3      	ldr	r3, [r4, #12]
    1f88:	781a      	ldrb	r2, [r3, #0]
    1f8a:	2a45      	cmp	r2, #69	; 0x45
    1f8c:	d131      	bne.n	1ff2 <d_type+0x190>
    1f8e:	3301      	adds	r3, #1
    1f90:	60e3      	str	r3, [r4, #12]
    1f92:	e0c1      	b.n	2118 <d_type+0x2b6>
    1f94:	4620      	mov	r0, r4
    1f96:	f7ff ff63 	bl	1e60 <d_class_enum_type>
    1f9a:	e0bd      	b.n	2118 <d_type+0x2b6>
    1f9c:	1c51      	adds	r1, r2, #1
    1f9e:	60e1      	str	r1, [r4, #12]
    1fa0:	7853      	ldrb	r3, [r2, #1]
    1fa2:	2b5f      	cmp	r3, #95	; 0x5f
    1fa4:	d017      	beq.n	1fd6 <d_type+0x174>
    1fa6:	3b30      	subs	r3, #48	; 0x30
    1fa8:	b2db      	uxtb	r3, r3
    1faa:	2b09      	cmp	r3, #9
    1fac:	d80c      	bhi.n	1fc8 <d_type+0x166>
    1fae:	68e3      	ldr	r3, [r4, #12]
    1fb0:	1c5a      	adds	r2, r3, #1
    1fb2:	60e2      	str	r2, [r4, #12]
    1fb4:	785b      	ldrb	r3, [r3, #1]
    1fb6:	3b30      	subs	r3, #48	; 0x30
    1fb8:	b2db      	uxtb	r3, r3
    1fba:	2b09      	cmp	r3, #9
    1fbc:	d9f7      	bls.n	1fae <d_type+0x14c>
    1fbe:	4620      	mov	r0, r4
    1fc0:	1a52      	subs	r2, r2, r1
    1fc2:	f7ff f97a 	bl	12ba <d_make_name>
    1fc6:	e002      	b.n	1fce <d_type+0x16c>
    1fc8:	4620      	mov	r0, r4
    1fca:	f000 fb00 	bl	25ce <d_expression>
    1fce:	4605      	mov	r5, r0
    1fd0:	2800      	cmp	r0, #0
    1fd2:	d034      	beq.n	203e <d_type+0x1dc>
    1fd4:	e000      	b.n	1fd8 <d_type+0x176>
    1fd6:	2500      	movs	r5, #0
    1fd8:	68e3      	ldr	r3, [r4, #12]
    1fda:	781a      	ldrb	r2, [r3, #0]
    1fdc:	2a5f      	cmp	r2, #95	; 0x5f
    1fde:	d108      	bne.n	1ff2 <d_type+0x190>
    1fe0:	3301      	adds	r3, #1
    1fe2:	4620      	mov	r0, r4
    1fe4:	60e3      	str	r3, [r4, #12]
    1fe6:	f7ff ff3c 	bl	1e62 <d_type>
    1fea:	2126      	movs	r1, #38	; 0x26
    1fec:	4603      	mov	r3, r0
    1fee:	4620      	mov	r0, r4
    1ff0:	e055      	b.n	209e <d_type+0x23c>
    1ff2:	2000      	movs	r0, #0
    1ff4:	e090      	b.n	2118 <d_type+0x2b6>
    1ff6:	3201      	adds	r2, #1
    1ff8:	4620      	mov	r0, r4
    1ffa:	60e2      	str	r2, [r4, #12]
    1ffc:	466d      	mov	r5, sp
    1ffe:	f7ff ff30 	bl	1e62 <d_type>
    2002:	4669      	mov	r1, sp
    2004:	2201      	movs	r2, #1
    2006:	4606      	mov	r6, r0
    2008:	4620      	mov	r0, r4
    200a:	f7ff f97e 	bl	130a <d_cv_qualifiers>
    200e:	4607      	mov	r7, r0
    2010:	b1a8      	cbz	r0, 203e <d_type+0x1dc>
    2012:	4620      	mov	r0, r4
    2014:	f7ff ff25 	bl	1e62 <d_type>
    2018:	6038      	str	r0, [r7, #0]
    201a:	2800      	cmp	r0, #0
    201c:	d07c      	beq.n	2118 <d_type+0x2b6>
    201e:	42af      	cmp	r7, r5
    2020:	d008      	beq.n	2034 <d_type+0x1d2>
    2022:	7803      	ldrb	r3, [r0, #0]
    2024:	2b25      	cmp	r3, #37	; 0x25
    2026:	d005      	beq.n	2034 <d_type+0x1d2>
    2028:	4620      	mov	r0, r4
    202a:	9900      	ldr	r1, [sp, #0]
    202c:	f7ff f9a1 	bl	1372 <d_add_substitution>
    2030:	2800      	cmp	r0, #0
    2032:	d071      	beq.n	2118 <d_type+0x2b6>
    2034:	4620      	mov	r0, r4
    2036:	2127      	movs	r1, #39	; 0x27
    2038:	4632      	mov	r2, r6
    203a:	9b00      	ldr	r3, [sp, #0]
    203c:	e06a      	b.n	2114 <d_type+0x2b2>
    203e:	e06b      	b.n	2118 <d_type+0x2b6>
    2040:	4620      	mov	r0, r4
    2042:	f7ff fb26 	bl	1692 <d_template_param>
    2046:	68e3      	ldr	r3, [r4, #12]
    2048:	9001      	str	r0, [sp, #4]
    204a:	4601      	mov	r1, r0
    204c:	781b      	ldrb	r3, [r3, #0]
    204e:	2b49      	cmp	r3, #73	; 0x49
    2050:	f040 8135 	bne.w	22be <d_type+0x45c>
    2054:	4620      	mov	r0, r4
    2056:	f7ff f98c 	bl	1372 <d_add_substitution>
    205a:	2800      	cmp	r0, #0
    205c:	f000 812c 	beq.w	22b8 <d_type+0x456>
    2060:	9d01      	ldr	r5, [sp, #4]
    2062:	e016      	b.n	2092 <d_type+0x230>
    2064:	7853      	ldrb	r3, [r2, #1]
    2066:	f1a3 0230 	sub.w	r2, r3, #48	; 0x30
    206a:	b2d2      	uxtb	r2, r2
    206c:	2a09      	cmp	r2, #9
    206e:	d905      	bls.n	207c <d_type+0x21a>
    2070:	2b5f      	cmp	r3, #95	; 0x5f
    2072:	d003      	beq.n	207c <d_type+0x21a>
    2074:	3b41      	subs	r3, #65	; 0x41
    2076:	b2db      	uxtb	r3, r3
    2078:	2b19      	cmp	r3, #25
    207a:	d812      	bhi.n	20a2 <d_type+0x240>
    207c:	2100      	movs	r1, #0
    207e:	4620      	mov	r0, r4
    2080:	f7ff f987 	bl	1392 <d_substitution>
    2084:	68e3      	ldr	r3, [r4, #12]
    2086:	9001      	str	r0, [sp, #4]
    2088:	4605      	mov	r5, r0
    208a:	781b      	ldrb	r3, [r3, #0]
    208c:	2b49      	cmp	r3, #73	; 0x49
    208e:	f040 810f 	bne.w	22b0 <d_type+0x44e>
    2092:	4620      	mov	r0, r4
    2094:	f7ff fd5e 	bl	1b54 <d_template_args>
    2098:	2104      	movs	r1, #4
    209a:	4603      	mov	r3, r0
    209c:	4620      	mov	r0, r4
    209e:	462a      	mov	r2, r5
    20a0:	e038      	b.n	2114 <d_type+0x2b2>
    20a2:	4620      	mov	r0, r4
    20a4:	f7ff fedc 	bl	1e60 <d_class_enum_type>
    20a8:	9001      	str	r0, [sp, #4]
    20aa:	2800      	cmp	r0, #0
    20ac:	f000 8107 	beq.w	22be <d_type+0x45c>
    20b0:	7803      	ldrb	r3, [r0, #0]
    20b2:	2b16      	cmp	r3, #22
    20b4:	f040 8103 	bne.w	22be <d_type+0x45c>
    20b8:	e0fa      	b.n	22b0 <d_type+0x44e>
    20ba:	3201      	adds	r2, #1
    20bc:	4620      	mov	r0, r4
    20be:	60e2      	str	r2, [r4, #12]
    20c0:	f7ff fecf 	bl	1e62 <d_type>
    20c4:	2120      	movs	r1, #32
    20c6:	4602      	mov	r2, r0
    20c8:	4620      	mov	r0, r4
    20ca:	e022      	b.n	2112 <d_type+0x2b0>
    20cc:	3201      	adds	r2, #1
    20ce:	4620      	mov	r0, r4
    20d0:	60e2      	str	r2, [r4, #12]
    20d2:	f7ff fec6 	bl	1e62 <d_type>
    20d6:	211e      	movs	r1, #30
    20d8:	4602      	mov	r2, r0
    20da:	4620      	mov	r0, r4
    20dc:	e019      	b.n	2112 <d_type+0x2b0>
    20de:	3201      	adds	r2, #1
    20e0:	4620      	mov	r0, r4
    20e2:	60e2      	str	r2, [r4, #12]
    20e4:	f7ff febd 	bl	1e62 <d_type>
    20e8:	211f      	movs	r1, #31
    20ea:	4602      	mov	r2, r0
    20ec:	4620      	mov	r0, r4
    20ee:	e010      	b.n	2112 <d_type+0x2b0>
    20f0:	3201      	adds	r2, #1
    20f2:	4620      	mov	r0, r4
    20f4:	60e2      	str	r2, [r4, #12]
    20f6:	f7ff feb4 	bl	1e62 <d_type>
    20fa:	2121      	movs	r1, #33	; 0x21
    20fc:	4602      	mov	r2, r0
    20fe:	4620      	mov	r0, r4
    2100:	e007      	b.n	2112 <d_type+0x2b0>
    2102:	3201      	adds	r2, #1
    2104:	4620      	mov	r0, r4
    2106:	60e2      	str	r2, [r4, #12]
    2108:	f7ff feab 	bl	1e62 <d_type>
    210c:	2122      	movs	r1, #34	; 0x22
    210e:	4602      	mov	r2, r0
    2110:	4620      	mov	r0, r4
    2112:	2300      	movs	r3, #0
    2114:	f7ff f892 	bl	123c <d_make_comp>
    2118:	9001      	str	r0, [sp, #4]
    211a:	e0d0      	b.n	22be <d_type+0x45c>
    211c:	3201      	adds	r2, #1
    211e:	4620      	mov	r0, r4
    2120:	60e2      	str	r2, [r4, #12]
    2122:	f7ff fae0 	bl	16e6 <d_source_name>
    2126:	9001      	str	r0, [sp, #4]
    2128:	4620      	mov	r0, r4
    212a:	f7ff fe9a 	bl	1e62 <d_type>
    212e:	211d      	movs	r1, #29
    2130:	9b01      	ldr	r3, [sp, #4]
    2132:	4602      	mov	r2, r0
    2134:	4620      	mov	r0, r4
    2136:	e7ed      	b.n	2114 <d_type+0x2b2>
    2138:	1c53      	adds	r3, r2, #1
    213a:	60e3      	str	r3, [r4, #12]
    213c:	7855      	ldrb	r5, [r2, #1]
    213e:	2d00      	cmp	r5, #0
    2140:	f000 80bb 	beq.w	22ba <d_type+0x458>
    2144:	1c5a      	adds	r2, r3, #1
    2146:	2d68      	cmp	r5, #104	; 0x68
    2148:	60e2      	str	r2, [r4, #12]
    214a:	d049      	beq.n	21e0 <d_type+0x37e>
    214c:	d80e      	bhi.n	216c <d_type+0x30a>
    214e:	2d64      	cmp	r5, #100	; 0x64
    2150:	d040      	beq.n	21d4 <d_type+0x372>
    2152:	d805      	bhi.n	2160 <d_type+0x2fe>
    2154:	2d46      	cmp	r5, #70	; 0x46
    2156:	d054      	beq.n	2202 <d_type+0x3a0>
    2158:	2d54      	cmp	r5, #84	; 0x54
    215a:	f040 80ab 	bne.w	22b4 <d_type+0x452>
    215e:	e017      	b.n	2190 <d_type+0x32e>
    2160:	2d65      	cmp	r5, #101	; 0x65
    2162:	d03a      	beq.n	21da <d_type+0x378>
    2164:	2d66      	cmp	r5, #102	; 0x66
    2166:	f040 80a5 	bne.w	22b4 <d_type+0x452>
    216a:	e030      	b.n	21ce <d_type+0x36c>
    216c:	2d73      	cmp	r5, #115	; 0x73
    216e:	d03a      	beq.n	21e6 <d_type+0x384>
    2170:	d805      	bhi.n	217e <d_type+0x31c>
    2172:	2d69      	cmp	r5, #105	; 0x69
    2174:	d03a      	beq.n	21ec <d_type+0x38a>
    2176:	2d70      	cmp	r5, #112	; 0x70
    2178:	f040 809c 	bne.w	22b4 <d_type+0x452>
    217c:	e01f      	b.n	21be <d_type+0x35c>
    217e:	2d74      	cmp	r5, #116	; 0x74
    2180:	d006      	beq.n	2190 <d_type+0x32e>
    2182:	2d76      	cmp	r5, #118	; 0x76
    2184:	f040 8096 	bne.w	22b4 <d_type+0x452>
    2188:	e069      	b.n	225e <d_type+0x3fc>
    218a:	bf00      	nop
    218c:	0000ee48 	.word	0x0000ee48
    2190:	4620      	mov	r0, r4
    2192:	f000 fa1c 	bl	25ce <d_expression>
    2196:	213b      	movs	r1, #59	; 0x3b
    2198:	2300      	movs	r3, #0
    219a:	4602      	mov	r2, r0
    219c:	4620      	mov	r0, r4
    219e:	f7ff f84d 	bl	123c <d_make_comp>
    21a2:	9001      	str	r0, [sp, #4]
    21a4:	2800      	cmp	r0, #0
    21a6:	f000 8083 	beq.w	22b0 <d_type+0x44e>
    21aa:	68e2      	ldr	r2, [r4, #12]
    21ac:	7813      	ldrb	r3, [r2, #0]
    21ae:	b11b      	cbz	r3, 21b8 <d_type+0x356>
    21b0:	3201      	adds	r2, #1
    21b2:	2b45      	cmp	r3, #69	; 0x45
    21b4:	60e2      	str	r2, [r4, #12]
    21b6:	d07b      	beq.n	22b0 <d_type+0x44e>
    21b8:	2300      	movs	r3, #0
    21ba:	9301      	str	r3, [sp, #4]
    21bc:	e078      	b.n	22b0 <d_type+0x44e>
    21be:	4620      	mov	r0, r4
    21c0:	f7ff fe4f 	bl	1e62 <d_type>
    21c4:	2141      	movs	r1, #65	; 0x41
    21c6:	2300      	movs	r3, #0
    21c8:	4602      	mov	r2, r0
    21ca:	4620      	mov	r0, r4
    21cc:	e06b      	b.n	22a6 <d_type+0x444>
    21ce:	4620      	mov	r0, r4
    21d0:	493e      	ldr	r1, [pc, #248]	; (22cc <d_type+0x46a>)
    21d2:	e00d      	b.n	21f0 <d_type+0x38e>
    21d4:	4620      	mov	r0, r4
    21d6:	493e      	ldr	r1, [pc, #248]	; (22d0 <d_type+0x46e>)
    21d8:	e00a      	b.n	21f0 <d_type+0x38e>
    21da:	4620      	mov	r0, r4
    21dc:	493d      	ldr	r1, [pc, #244]	; (22d4 <d_type+0x472>)
    21de:	e007      	b.n	21f0 <d_type+0x38e>
    21e0:	4620      	mov	r0, r4
    21e2:	493d      	ldr	r1, [pc, #244]	; (22d8 <d_type+0x476>)
    21e4:	e004      	b.n	21f0 <d_type+0x38e>
    21e6:	4620      	mov	r0, r4
    21e8:	493c      	ldr	r1, [pc, #240]	; (22dc <d_type+0x47a>)
    21ea:	e001      	b.n	21f0 <d_type+0x38e>
    21ec:	493c      	ldr	r1, [pc, #240]	; (22e0 <d_type+0x47e>)
    21ee:	4620      	mov	r0, r4
    21f0:	f7ff f874 	bl	12dc <d_make_builtin_type>
    21f4:	6b22      	ldr	r2, [r4, #48]	; 0x30
    21f6:	9001      	str	r0, [sp, #4]
    21f8:	6843      	ldr	r3, [r0, #4]
    21fa:	685b      	ldr	r3, [r3, #4]
    21fc:	18d3      	adds	r3, r2, r3
    21fe:	6323      	str	r3, [r4, #48]	; 0x30
    2200:	e056      	b.n	22b0 <d_type+0x44e>
    2202:	4620      	mov	r0, r4
    2204:	f7ff f80c 	bl	1220 <d_make_empty>
    2208:	2328      	movs	r3, #40	; 0x28
    220a:	9001      	str	r0, [sp, #4]
    220c:	7003      	strb	r3, [r0, #0]
    220e:	68e3      	ldr	r3, [r4, #12]
    2210:	781b      	ldrb	r3, [r3, #0]
    2212:	3b30      	subs	r3, #48	; 0x30
    2214:	b2db      	uxtb	r3, r3
    2216:	2b09      	cmp	r3, #9
    2218:	bf8c      	ite	hi
    221a:	2300      	movhi	r3, #0
    221c:	2301      	movls	r3, #1
    221e:	8103      	strh	r3, [r0, #8]
    2220:	b11b      	cbz	r3, 222a <d_type+0x3c8>
    2222:	f104 000c 	add.w	r0, r4, #12
    2226:	f7ff f9d1 	bl	15cc <d_number.clone.0>
    222a:	4620      	mov	r0, r4
    222c:	9d01      	ldr	r5, [sp, #4]
    222e:	f7ff fe18 	bl	1e62 <d_type>
    2232:	9b01      	ldr	r3, [sp, #4]
    2234:	6068      	str	r0, [r5, #4]
    2236:	685d      	ldr	r5, [r3, #4]
    2238:	2d00      	cmp	r5, #0
    223a:	d03e      	beq.n	22ba <d_type+0x458>
    223c:	f104 000c 	add.w	r0, r4, #12
    2240:	f7ff f9c4 	bl	15cc <d_number.clone.0>
    2244:	68e2      	ldr	r2, [r4, #12]
    2246:	7813      	ldrb	r3, [r2, #0]
    2248:	b10b      	cbz	r3, 224e <d_type+0x3ec>
    224a:	3201      	adds	r2, #1
    224c:	60e2      	str	r2, [r4, #12]
    224e:	f1a3 0273 	sub.w	r2, r3, #115	; 0x73
    2252:	4253      	negs	r3, r2
    2254:	eb43 0302 	adc.w	r3, r3, r2
    2258:	9a01      	ldr	r2, [sp, #4]
    225a:	8153      	strh	r3, [r2, #10]
    225c:	e028      	b.n	22b0 <d_type+0x44e>
    225e:	785b      	ldrb	r3, [r3, #1]
    2260:	2b5f      	cmp	r3, #95	; 0x5f
    2262:	d106      	bne.n	2272 <d_type+0x410>
    2264:	3201      	adds	r2, #1
    2266:	4620      	mov	r0, r4
    2268:	60e2      	str	r2, [r4, #12]
    226a:	f000 f9b0 	bl	25ce <d_expression>
    226e:	4605      	mov	r5, r0
    2270:	e00b      	b.n	228a <d_type+0x428>
    2272:	4620      	mov	r0, r4
    2274:	f7fe ffd4 	bl	1220 <d_make_empty>
    2278:	4605      	mov	r5, r0
    227a:	b1b8      	cbz	r0, 22ac <d_type+0x44a>
    227c:	233a      	movs	r3, #58	; 0x3a
    227e:	7003      	strb	r3, [r0, #0]
    2280:	f104 000c 	add.w	r0, r4, #12
    2284:	f7ff f9a2 	bl	15cc <d_number.clone.0>
    2288:	6068      	str	r0, [r5, #4]
    228a:	b17d      	cbz	r5, 22ac <d_type+0x44a>
    228c:	68e3      	ldr	r3, [r4, #12]
    228e:	781a      	ldrb	r2, [r3, #0]
    2290:	2a5f      	cmp	r2, #95	; 0x5f
    2292:	d10b      	bne.n	22ac <d_type+0x44a>
    2294:	3301      	adds	r3, #1
    2296:	4620      	mov	r0, r4
    2298:	60e3      	str	r3, [r4, #12]
    229a:	f7ff fde2 	bl	1e62 <d_type>
    229e:	2129      	movs	r1, #41	; 0x29
    22a0:	462a      	mov	r2, r5
    22a2:	4603      	mov	r3, r0
    22a4:	4620      	mov	r0, r4
    22a6:	f7fe ffc9 	bl	123c <d_make_comp>
    22aa:	e000      	b.n	22ae <d_type+0x44c>
    22ac:	2000      	movs	r0, #0
    22ae:	9001      	str	r0, [sp, #4]
    22b0:	9d01      	ldr	r5, [sp, #4]
    22b2:	e002      	b.n	22ba <d_type+0x458>
    22b4:	2500      	movs	r5, #0
    22b6:	e000      	b.n	22ba <d_type+0x458>
    22b8:	4605      	mov	r5, r0
    22ba:	4628      	mov	r0, r5
    22bc:	bdfe      	pop	{r1, r2, r3, r4, r5, r6, r7, pc}
    22be:	4620      	mov	r0, r4
    22c0:	9901      	ldr	r1, [sp, #4]
    22c2:	f7ff f856 	bl	1372 <d_add_substitution>
    22c6:	2800      	cmp	r0, #0
    22c8:	d1f2      	bne.n	22b0 <d_type+0x44e>
    22ca:	e7f5      	b.n	22b8 <d_type+0x456>
    22cc:	0000f7e4 	.word	0x0000f7e4
    22d0:	0000f7f8 	.word	0x0000f7f8
    22d4:	0000f80c 	.word	0x0000f80c
    22d8:	0000f820 	.word	0x0000f820
    22dc:	0000f834 	.word	0x0000f834
    22e0:	0000f848 	.word	0x0000f848

000022e4 <d_parmlist>:
    22e4:	b537      	push	{r0, r1, r2, r4, r5, lr}
    22e6:	4604      	mov	r4, r0
    22e8:	ad02      	add	r5, sp, #8
    22ea:	2300      	movs	r3, #0
    22ec:	f845 3d04 	str.w	r3, [r5, #-4]!
    22f0:	68e3      	ldr	r3, [r4, #12]
    22f2:	781b      	ldrb	r3, [r3, #0]
    22f4:	b183      	cbz	r3, 2318 <d_parmlist+0x34>
    22f6:	2b45      	cmp	r3, #69	; 0x45
    22f8:	d00e      	beq.n	2318 <d_parmlist+0x34>
    22fa:	4620      	mov	r0, r4
    22fc:	f7ff fdb1 	bl	1e62 <d_type>
    2300:	4602      	mov	r2, r0
    2302:	b1e0      	cbz	r0, 233e <d_parmlist+0x5a>
    2304:	4620      	mov	r0, r4
    2306:	212a      	movs	r1, #42	; 0x2a
    2308:	2300      	movs	r3, #0
    230a:	f7fe ff97 	bl	123c <d_make_comp>
    230e:	6028      	str	r0, [r5, #0]
    2310:	b1a0      	cbz	r0, 233c <d_parmlist+0x58>
    2312:	f100 0508 	add.w	r5, r0, #8
    2316:	e7eb      	b.n	22f0 <d_parmlist+0xc>
    2318:	9a01      	ldr	r2, [sp, #4]
    231a:	b182      	cbz	r2, 233e <d_parmlist+0x5a>
    231c:	6893      	ldr	r3, [r2, #8]
    231e:	b973      	cbnz	r3, 233e <d_parmlist+0x5a>
    2320:	6851      	ldr	r1, [r2, #4]
    2322:	7808      	ldrb	r0, [r1, #0]
    2324:	2823      	cmp	r0, #35	; 0x23
    2326:	d10a      	bne.n	233e <d_parmlist+0x5a>
    2328:	6849      	ldr	r1, [r1, #4]
    232a:	7c08      	ldrb	r0, [r1, #16]
    232c:	2809      	cmp	r0, #9
    232e:	d106      	bne.n	233e <d_parmlist+0x5a>
    2330:	6b20      	ldr	r0, [r4, #48]	; 0x30
    2332:	6849      	ldr	r1, [r1, #4]
    2334:	1a41      	subs	r1, r0, r1
    2336:	6321      	str	r1, [r4, #48]	; 0x30
    2338:	6053      	str	r3, [r2, #4]
    233a:	e000      	b.n	233e <d_parmlist+0x5a>
    233c:	4602      	mov	r2, r0
    233e:	4610      	mov	r0, r2
    2340:	bd3e      	pop	{r1, r2, r3, r4, r5, pc}

00002342 <d_bare_function_type>:
    2342:	68c3      	ldr	r3, [r0, #12]
    2344:	b570      	push	{r4, r5, r6, lr}
    2346:	4604      	mov	r4, r0
    2348:	781a      	ldrb	r2, [r3, #0]
    234a:	2a4a      	cmp	r2, #74	; 0x4a
    234c:	d102      	bne.n	2354 <d_bare_function_type+0x12>
    234e:	3301      	adds	r3, #1
    2350:	60c3      	str	r3, [r0, #12]
    2352:	e000      	b.n	2356 <d_bare_function_type+0x14>
    2354:	b129      	cbz	r1, 2362 <d_bare_function_type+0x20>
    2356:	4620      	mov	r0, r4
    2358:	f7ff fd83 	bl	1e62 <d_type>
    235c:	4605      	mov	r5, r0
    235e:	b168      	cbz	r0, 237c <d_bare_function_type+0x3a>
    2360:	e000      	b.n	2364 <d_bare_function_type+0x22>
    2362:	460d      	mov	r5, r1
    2364:	4620      	mov	r0, r4
    2366:	f7ff ffbd 	bl	22e4 <d_parmlist>
    236a:	4603      	mov	r3, r0
    236c:	b138      	cbz	r0, 237e <d_bare_function_type+0x3c>
    236e:	4620      	mov	r0, r4
    2370:	2125      	movs	r1, #37	; 0x25
    2372:	462a      	mov	r2, r5
    2374:	e8bd 4070 	ldmia.w	sp!, {r4, r5, r6, lr}
    2378:	f7fe bf60 	b.w	123c <d_make_comp>
    237c:	bd70      	pop	{r4, r5, r6, pc}
    237e:	bd70      	pop	{r4, r5, r6, pc}

00002380 <d_operator_name>:
    2380:	68c3      	ldr	r3, [r0, #12]
    2382:	e92d 41f0 	stmdb	sp!, {r4, r5, r6, r7, r8, lr}
    2386:	4604      	mov	r4, r0
    2388:	7819      	ldrb	r1, [r3, #0]
    238a:	b109      	cbz	r1, 2390 <d_operator_name+0x10>
    238c:	3301      	adds	r3, #1
    238e:	60c3      	str	r3, [r0, #12]
    2390:	68e3      	ldr	r3, [r4, #12]
    2392:	7818      	ldrb	r0, [r3, #0]
    2394:	b108      	cbz	r0, 239a <d_operator_name+0x1a>
    2396:	3301      	adds	r3, #1
    2398:	60e3      	str	r3, [r4, #12]
    239a:	2976      	cmp	r1, #118	; 0x76
    239c:	d117      	bne.n	23ce <d_operator_name+0x4e>
    239e:	f1a0 0630 	sub.w	r6, r0, #48	; 0x30
    23a2:	b2f3      	uxtb	r3, r6
    23a4:	2b09      	cmp	r3, #9
    23a6:	d821      	bhi.n	23ec <d_operator_name+0x6c>
    23a8:	4620      	mov	r0, r4
    23aa:	f7ff f99c 	bl	16e6 <d_source_name>
    23ae:	4605      	mov	r5, r0
    23b0:	4620      	mov	r0, r4
    23b2:	f7fe ff35 	bl	1220 <d_make_empty>
    23b6:	2800      	cmp	r0, #0
    23b8:	d03f      	beq.n	243a <d_operator_name+0xba>
    23ba:	b12d      	cbz	r5, 23c8 <d_operator_name+0x48>
    23bc:	232d      	movs	r3, #45	; 0x2d
    23be:	6046      	str	r6, [r0, #4]
    23c0:	7003      	strb	r3, [r0, #0]
    23c2:	6085      	str	r5, [r0, #8]
    23c4:	e8bd 81f0 	ldmia.w	sp!, {r4, r5, r6, r7, r8, pc}
    23c8:	4628      	mov	r0, r5
    23ca:	e8bd 81f0 	ldmia.w	sp!, {r4, r5, r6, r7, r8, pc}
    23ce:	2963      	cmp	r1, #99	; 0x63
    23d0:	d10c      	bne.n	23ec <d_operator_name+0x6c>
    23d2:	2876      	cmp	r0, #118	; 0x76
    23d4:	d10a      	bne.n	23ec <d_operator_name+0x6c>
    23d6:	4620      	mov	r0, r4
    23d8:	f7ff fd43 	bl	1e62 <d_type>
    23dc:	212e      	movs	r1, #46	; 0x2e
    23de:	2300      	movs	r3, #0
    23e0:	4602      	mov	r2, r0
    23e2:	4620      	mov	r0, r4
    23e4:	e8bd 41f0 	ldmia.w	sp!, {r4, r5, r6, r7, r8, lr}
    23e8:	f7fe bf28 	b.w	123c <d_make_comp>
    23ec:	2234      	movs	r2, #52	; 0x34
    23ee:	2300      	movs	r3, #0
    23f0:	1ad6      	subs	r6, r2, r3
    23f2:	f8df c04c 	ldr.w	ip, [pc, #76]	; 2440 <d_operator_name+0xc0>
    23f6:	eb06 76d6 	add.w	r6, r6, r6, lsr #31
    23fa:	f50c 7551 	add.w	r5, ip, #836	; 0x344
    23fe:	eb03 0666 	add.w	r6, r3, r6, asr #1
    2402:	0137      	lsls	r7, r6, #4
    2404:	19ed      	adds	r5, r5, r7
    2406:	4467      	add	r7, ip
    2408:	f8d7 7344 	ldr.w	r7, [r7, #836]	; 0x344
    240c:	f897 c000 	ldrb.w	ip, [r7]
    2410:	4561      	cmp	r1, ip
    2412:	d10b      	bne.n	242c <d_operator_name+0xac>
    2414:	787f      	ldrb	r7, [r7, #1]
    2416:	42b8      	cmp	r0, r7
    2418:	d108      	bne.n	242c <d_operator_name+0xac>
    241a:	4620      	mov	r0, r4
    241c:	f7fe ff00 	bl	1220 <d_make_empty>
    2420:	b158      	cbz	r0, 243a <d_operator_name+0xba>
    2422:	232c      	movs	r3, #44	; 0x2c
    2424:	6045      	str	r5, [r0, #4]
    2426:	7003      	strb	r3, [r0, #0]
    2428:	e8bd 81f0 	ldmia.w	sp!, {r4, r5, r6, r7, r8, pc}
    242c:	d301      	bcc.n	2432 <d_operator_name+0xb2>
    242e:	1c73      	adds	r3, r6, #1
    2430:	e000      	b.n	2434 <d_operator_name+0xb4>
    2432:	4632      	mov	r2, r6
    2434:	4293      	cmp	r3, r2
    2436:	d1db      	bne.n	23f0 <d_operator_name+0x70>
    2438:	2000      	movs	r0, #0
    243a:	e8bd 81f0 	ldmia.w	sp!, {r4, r5, r6, r7, r8, pc}
    243e:	bf00      	nop
    2440:	0000f518 	.word	0x0000f518

00002444 <d_unqualified_name>:
    2444:	68c3      	ldr	r3, [r0, #12]
    2446:	e92d 41f0 	stmdb	sp!, {r4, r5, r6, r7, r8, lr}
    244a:	4605      	mov	r5, r0
    244c:	781a      	ldrb	r2, [r3, #0]
    244e:	f1a2 0130 	sub.w	r1, r2, #48	; 0x30
    2452:	b2c9      	uxtb	r1, r1
    2454:	2909      	cmp	r1, #9
    2456:	d803      	bhi.n	2460 <d_unqualified_name+0x1c>
    2458:	e8bd 41f0 	ldmia.w	sp!, {r4, r5, r6, r7, r8, lr}
    245c:	f7ff b943 	b.w	16e6 <d_source_name>
    2460:	f1a2 0161 	sub.w	r1, r2, #97	; 0x61
    2464:	b2c9      	uxtb	r1, r1
    2466:	2919      	cmp	r1, #25
    2468:	d810      	bhi.n	248c <d_unqualified_name+0x48>
    246a:	f7ff ff89 	bl	2380 <d_operator_name>
    246e:	4604      	mov	r4, r0
    2470:	2800      	cmp	r0, #0
    2472:	f000 80a9 	beq.w	25c8 <d_unqualified_name+0x184>
    2476:	7803      	ldrb	r3, [r0, #0]
    2478:	2b2c      	cmp	r3, #44	; 0x2c
    247a:	f040 80a5 	bne.w	25c8 <d_unqualified_name+0x184>
    247e:	6843      	ldr	r3, [r0, #4]
    2480:	6b2a      	ldr	r2, [r5, #48]	; 0x30
    2482:	689b      	ldr	r3, [r3, #8]
    2484:	18d3      	adds	r3, r2, r3
    2486:	3307      	adds	r3, #7
    2488:	632b      	str	r3, [r5, #48]	; 0x30
    248a:	e09d      	b.n	25c8 <d_unqualified_name+0x184>
    248c:	f1a2 0143 	sub.w	r1, r2, #67	; 0x43
    2490:	b2c9      	uxtb	r1, r1
    2492:	2901      	cmp	r1, #1
    2494:	d846      	bhi.n	2524 <d_unqualified_name+0xe0>
    2496:	6ac3      	ldr	r3, [r0, #44]	; 0x2c
    2498:	b13b      	cbz	r3, 24aa <d_unqualified_name+0x66>
    249a:	781a      	ldrb	r2, [r3, #0]
    249c:	b10a      	cbz	r2, 24a2 <d_unqualified_name+0x5e>
    249e:	2a16      	cmp	r2, #22
    24a0:	d103      	bne.n	24aa <d_unqualified_name+0x66>
    24a2:	6b02      	ldr	r2, [r0, #48]	; 0x30
    24a4:	689b      	ldr	r3, [r3, #8]
    24a6:	18d3      	adds	r3, r2, r3
    24a8:	6303      	str	r3, [r0, #48]	; 0x30
    24aa:	68eb      	ldr	r3, [r5, #12]
    24ac:	781a      	ldrb	r2, [r3, #0]
    24ae:	2a43      	cmp	r2, #67	; 0x43
    24b0:	d003      	beq.n	24ba <d_unqualified_name+0x76>
    24b2:	2a44      	cmp	r2, #68	; 0x44
    24b4:	f040 8087 	bne.w	25c6 <d_unqualified_name+0x182>
    24b8:	e017      	b.n	24ea <d_unqualified_name+0xa6>
    24ba:	785a      	ldrb	r2, [r3, #1]
    24bc:	2a32      	cmp	r2, #50	; 0x32
    24be:	d007      	beq.n	24d0 <d_unqualified_name+0x8c>
    24c0:	2a33      	cmp	r2, #51	; 0x33
    24c2:	d003      	beq.n	24cc <d_unqualified_name+0x88>
    24c4:	2a31      	cmp	r2, #49	; 0x31
    24c6:	d17e      	bne.n	25c6 <d_unqualified_name+0x182>
    24c8:	2701      	movs	r7, #1
    24ca:	e002      	b.n	24d2 <d_unqualified_name+0x8e>
    24cc:	2703      	movs	r7, #3
    24ce:	e000      	b.n	24d2 <d_unqualified_name+0x8e>
    24d0:	2702      	movs	r7, #2
    24d2:	3302      	adds	r3, #2
    24d4:	4628      	mov	r0, r5
    24d6:	60eb      	str	r3, [r5, #12]
    24d8:	6aee      	ldr	r6, [r5, #44]	; 0x2c
    24da:	f7fe fea1 	bl	1220 <d_make_empty>
    24de:	4604      	mov	r4, r0
    24e0:	2800      	cmp	r0, #0
    24e2:	d071      	beq.n	25c8 <d_unqualified_name+0x184>
    24e4:	b1e6      	cbz	r6, 2520 <d_unqualified_name+0xdc>
    24e6:	2307      	movs	r3, #7
    24e8:	e016      	b.n	2518 <d_unqualified_name+0xd4>
    24ea:	785a      	ldrb	r2, [r3, #1]
    24ec:	2a31      	cmp	r2, #49	; 0x31
    24ee:	d007      	beq.n	2500 <d_unqualified_name+0xbc>
    24f0:	2a32      	cmp	r2, #50	; 0x32
    24f2:	d003      	beq.n	24fc <d_unqualified_name+0xb8>
    24f4:	2a30      	cmp	r2, #48	; 0x30
    24f6:	d166      	bne.n	25c6 <d_unqualified_name+0x182>
    24f8:	2701      	movs	r7, #1
    24fa:	e002      	b.n	2502 <d_unqualified_name+0xbe>
    24fc:	2703      	movs	r7, #3
    24fe:	e000      	b.n	2502 <d_unqualified_name+0xbe>
    2500:	2702      	movs	r7, #2
    2502:	3302      	adds	r3, #2
    2504:	4628      	mov	r0, r5
    2506:	60eb      	str	r3, [r5, #12]
    2508:	6aee      	ldr	r6, [r5, #44]	; 0x2c
    250a:	f7fe fe89 	bl	1220 <d_make_empty>
    250e:	4604      	mov	r4, r0
    2510:	2800      	cmp	r0, #0
    2512:	d059      	beq.n	25c8 <d_unqualified_name+0x184>
    2514:	b126      	cbz	r6, 2520 <d_unqualified_name+0xdc>
    2516:	2308      	movs	r3, #8
    2518:	7003      	strb	r3, [r0, #0]
    251a:	7107      	strb	r7, [r0, #4]
    251c:	6086      	str	r6, [r0, #8]
    251e:	e053      	b.n	25c8 <d_unqualified_name+0x184>
    2520:	4634      	mov	r4, r6
    2522:	e051      	b.n	25c8 <d_unqualified_name+0x184>
    2524:	2a4c      	cmp	r2, #76	; 0x4c
    2526:	d10a      	bne.n	253e <d_unqualified_name+0xfa>
    2528:	3301      	adds	r3, #1
    252a:	60c3      	str	r3, [r0, #12]
    252c:	f7ff f8db 	bl	16e6 <d_source_name>
    2530:	4604      	mov	r4, r0
    2532:	2800      	cmp	r0, #0
    2534:	d048      	beq.n	25c8 <d_unqualified_name+0x184>
    2536:	4628      	mov	r0, r5
    2538:	f7ff f8c6 	bl	16c8 <d_discriminator>
    253c:	e03f      	b.n	25be <d_unqualified_name+0x17a>
    253e:	2a55      	cmp	r2, #85	; 0x55
    2540:	d141      	bne.n	25c6 <d_unqualified_name+0x182>
    2542:	7859      	ldrb	r1, [r3, #1]
    2544:	1c5a      	adds	r2, r3, #1
    2546:	296c      	cmp	r1, #108	; 0x6c
    2548:	d002      	beq.n	2550 <d_unqualified_name+0x10c>
    254a:	2974      	cmp	r1, #116	; 0x74
    254c:	d13b      	bne.n	25c6 <d_unqualified_name+0x182>
    254e:	e020      	b.n	2592 <d_unqualified_name+0x14e>
    2550:	60c2      	str	r2, [r0, #12]
    2552:	785b      	ldrb	r3, [r3, #1]
    2554:	2b6c      	cmp	r3, #108	; 0x6c
    2556:	d136      	bne.n	25c6 <d_unqualified_name+0x182>
    2558:	3201      	adds	r2, #1
    255a:	60c2      	str	r2, [r0, #12]
    255c:	f7ff fec2 	bl	22e4 <d_parmlist>
    2560:	4606      	mov	r6, r0
    2562:	b1a0      	cbz	r0, 258e <d_unqualified_name+0x14a>
    2564:	68eb      	ldr	r3, [r5, #12]
    2566:	781a      	ldrb	r2, [r3, #0]
    2568:	2a45      	cmp	r2, #69	; 0x45
    256a:	d12c      	bne.n	25c6 <d_unqualified_name+0x182>
    256c:	3301      	adds	r3, #1
    256e:	4628      	mov	r0, r5
    2570:	60eb      	str	r3, [r5, #12]
    2572:	f7ff f873 	bl	165c <d_compact_number>
    2576:	1e07      	subs	r7, r0, #0
    2578:	db25      	blt.n	25c6 <d_unqualified_name+0x182>
    257a:	4628      	mov	r0, r5
    257c:	f7fe fe50 	bl	1220 <d_make_empty>
    2580:	4604      	mov	r4, r0
    2582:	b1c0      	cbz	r0, 25b6 <d_unqualified_name+0x172>
    2584:	233e      	movs	r3, #62	; 0x3e
    2586:	6046      	str	r6, [r0, #4]
    2588:	7003      	strb	r3, [r0, #0]
    258a:	6087      	str	r7, [r0, #8]
    258c:	e013      	b.n	25b6 <d_unqualified_name+0x172>
    258e:	4604      	mov	r4, r0
    2590:	e01a      	b.n	25c8 <d_unqualified_name+0x184>
    2592:	60c2      	str	r2, [r0, #12]
    2594:	785b      	ldrb	r3, [r3, #1]
    2596:	2b74      	cmp	r3, #116	; 0x74
    2598:	d115      	bne.n	25c6 <d_unqualified_name+0x182>
    259a:	3201      	adds	r2, #1
    259c:	60c2      	str	r2, [r0, #12]
    259e:	f7ff f85d 	bl	165c <d_compact_number>
    25a2:	1e06      	subs	r6, r0, #0
    25a4:	db0f      	blt.n	25c6 <d_unqualified_name+0x182>
    25a6:	4628      	mov	r0, r5
    25a8:	f7fe fe3a 	bl	1220 <d_make_empty>
    25ac:	4604      	mov	r4, r0
    25ae:	b110      	cbz	r0, 25b6 <d_unqualified_name+0x172>
    25b0:	2340      	movs	r3, #64	; 0x40
    25b2:	6046      	str	r6, [r0, #4]
    25b4:	7003      	strb	r3, [r0, #0]
    25b6:	4628      	mov	r0, r5
    25b8:	4621      	mov	r1, r4
    25ba:	f7fe feda 	bl	1372 <d_add_substitution>
    25be:	2800      	cmp	r0, #0
    25c0:	bf08      	it	eq
    25c2:	2400      	moveq	r4, #0
    25c4:	e000      	b.n	25c8 <d_unqualified_name+0x184>
    25c6:	2400      	movs	r4, #0
    25c8:	4620      	mov	r0, r4
    25ca:	e8bd 81f0 	ldmia.w	sp!, {r4, r5, r6, r7, r8, pc}

000025ce <d_expression>:
    25ce:	68c3      	ldr	r3, [r0, #12]
    25d0:	e92d 41f0 	stmdb	sp!, {r4, r5, r6, r7, r8, lr}
    25d4:	4604      	mov	r4, r0
    25d6:	781a      	ldrb	r2, [r3, #0]
    25d8:	2a4c      	cmp	r2, #76	; 0x4c
    25da:	d103      	bne.n	25e4 <d_expression+0x16>
    25dc:	e8bd 41f0 	ldmia.w	sp!, {r4, r5, r6, r7, r8, lr}
    25e0:	f7ff ba6f 	b.w	1ac2 <d_expr_primary>
    25e4:	2a54      	cmp	r2, #84	; 0x54
    25e6:	d103      	bne.n	25f0 <d_expression+0x22>
    25e8:	e8bd 41f0 	ldmia.w	sp!, {r4, r5, r6, r7, r8, lr}
    25ec:	f7ff b851 	b.w	1692 <d_template_param>
    25f0:	2a73      	cmp	r2, #115	; 0x73
    25f2:	d12c      	bne.n	264e <d_expression+0x80>
    25f4:	7859      	ldrb	r1, [r3, #1]
    25f6:	2972      	cmp	r1, #114	; 0x72
    25f8:	d11e      	bne.n	2638 <d_expression+0x6a>
    25fa:	3302      	adds	r3, #2
    25fc:	60c3      	str	r3, [r0, #12]
    25fe:	f7ff fc30 	bl	1e62 <d_type>
    2602:	4605      	mov	r5, r0
    2604:	4620      	mov	r0, r4
    2606:	f7ff ff1d 	bl	2444 <d_unqualified_name>
    260a:	68e3      	ldr	r3, [r4, #12]
    260c:	781b      	ldrb	r3, [r3, #0]
    260e:	2b49      	cmp	r3, #73	; 0x49
    2610:	4606      	mov	r6, r0
    2612:	d004      	beq.n	261e <d_expression+0x50>
    2614:	4620      	mov	r0, r4
    2616:	2101      	movs	r1, #1
    2618:	462a      	mov	r2, r5
    261a:	4633      	mov	r3, r6
    261c:	e0dd      	b.n	27da <d_expression+0x20c>
    261e:	4620      	mov	r0, r4
    2620:	f7ff fa98 	bl	1b54 <d_template_args>
    2624:	2104      	movs	r1, #4
    2626:	4632      	mov	r2, r6
    2628:	4603      	mov	r3, r0
    262a:	4620      	mov	r0, r4
    262c:	f7fe fe06 	bl	123c <d_make_comp>
    2630:	2101      	movs	r1, #1
    2632:	4603      	mov	r3, r0
    2634:	4620      	mov	r0, r4
    2636:	e0cf      	b.n	27d8 <d_expression+0x20a>
    2638:	2970      	cmp	r1, #112	; 0x70
    263a:	d11f      	bne.n	267c <d_expression+0xae>
    263c:	3302      	adds	r3, #2
    263e:	60c3      	str	r3, [r0, #12]
    2640:	f7ff ffc5 	bl	25ce <d_expression>
    2644:	2141      	movs	r1, #65	; 0x41
    2646:	2300      	movs	r3, #0
    2648:	4602      	mov	r2, r0
    264a:	4620      	mov	r0, r4
    264c:	e0c5      	b.n	27da <d_expression+0x20c>
    264e:	2a66      	cmp	r2, #102	; 0x66
    2650:	d114      	bne.n	267c <d_expression+0xae>
    2652:	7859      	ldrb	r1, [r3, #1]
    2654:	2970      	cmp	r1, #112	; 0x70
    2656:	d111      	bne.n	267c <d_expression+0xae>
    2658:	3302      	adds	r3, #2
    265a:	60c3      	str	r3, [r0, #12]
    265c:	f7fe fffe 	bl	165c <d_compact_number>
    2660:	1e06      	subs	r6, r0, #0
    2662:	f2c0 80be 	blt.w	27e2 <d_expression+0x214>
    2666:	4620      	mov	r0, r4
    2668:	f7fe fdda 	bl	1220 <d_make_empty>
    266c:	4605      	mov	r5, r0
    266e:	2800      	cmp	r0, #0
    2670:	f000 80b8 	beq.w	27e4 <d_expression+0x216>
    2674:	2306      	movs	r3, #6
    2676:	6046      	str	r6, [r0, #4]
    2678:	7003      	strb	r3, [r0, #0]
    267a:	e0b3      	b.n	27e4 <d_expression+0x216>
    267c:	f1a2 0130 	sub.w	r1, r2, #48	; 0x30
    2680:	b2c9      	uxtb	r1, r1
    2682:	2909      	cmp	r1, #9
    2684:	d906      	bls.n	2694 <d_expression+0xc6>
    2686:	2a6f      	cmp	r2, #111	; 0x6f
    2688:	d117      	bne.n	26ba <d_expression+0xec>
    268a:	785a      	ldrb	r2, [r3, #1]
    268c:	2a6e      	cmp	r2, #110	; 0x6e
    268e:	d114      	bne.n	26ba <d_expression+0xec>
    2690:	3302      	adds	r3, #2
    2692:	60e3      	str	r3, [r4, #12]
    2694:	4620      	mov	r0, r4
    2696:	f7ff fed5 	bl	2444 <d_unqualified_name>
    269a:	4605      	mov	r5, r0
    269c:	2800      	cmp	r0, #0
    269e:	f000 80a1 	beq.w	27e4 <d_expression+0x216>
    26a2:	68e3      	ldr	r3, [r4, #12]
    26a4:	781b      	ldrb	r3, [r3, #0]
    26a6:	2b49      	cmp	r3, #73	; 0x49
    26a8:	f040 809c 	bne.w	27e4 <d_expression+0x216>
    26ac:	4620      	mov	r0, r4
    26ae:	f7ff fa51 	bl	1b54 <d_template_args>
    26b2:	2104      	movs	r1, #4
    26b4:	4603      	mov	r3, r0
    26b6:	4620      	mov	r0, r4
    26b8:	e08e      	b.n	27d8 <d_expression+0x20a>
    26ba:	4620      	mov	r0, r4
    26bc:	f7ff fe60 	bl	2380 <d_operator_name>
    26c0:	4605      	mov	r5, r0
    26c2:	2800      	cmp	r0, #0
    26c4:	f000 808e 	beq.w	27e4 <d_expression+0x216>
    26c8:	7806      	ldrb	r6, [r0, #0]
    26ca:	2e2c      	cmp	r6, #44	; 0x2c
    26cc:	d10e      	bne.n	26ec <d_expression+0x11e>
    26ce:	6843      	ldr	r3, [r0, #4]
    26d0:	6b21      	ldr	r1, [r4, #48]	; 0x30
    26d2:	689a      	ldr	r2, [r3, #8]
    26d4:	6818      	ldr	r0, [r3, #0]
    26d6:	188a      	adds	r2, r1, r2
    26d8:	4944      	ldr	r1, [pc, #272]	; (27ec <d_expression+0x21e>)
    26da:	3a02      	subs	r2, #2
    26dc:	6322      	str	r2, [r4, #48]	; 0x30
    26de:	f005 f952 	bl	7986 <strcmp>
    26e2:	b948      	cbnz	r0, 26f8 <d_expression+0x12a>
    26e4:	4620      	mov	r0, r4
    26e6:	f7ff fbbc 	bl	1e62 <d_type>
    26ea:	e01e      	b.n	272a <d_expression+0x15c>
    26ec:	2e2d      	cmp	r6, #45	; 0x2d
    26ee:	d006      	beq.n	26fe <d_expression+0x130>
    26f0:	2e2e      	cmp	r6, #46	; 0x2e
    26f2:	d00d      	beq.n	2710 <d_expression+0x142>
    26f4:	2e2c      	cmp	r6, #44	; 0x2c
    26f6:	d174      	bne.n	27e2 <d_expression+0x214>
    26f8:	686b      	ldr	r3, [r5, #4]
    26fa:	68db      	ldr	r3, [r3, #12]
    26fc:	e000      	b.n	2700 <d_expression+0x132>
    26fe:	6843      	ldr	r3, [r0, #4]
    2700:	2b02      	cmp	r3, #2
    2702:	d016      	beq.n	2732 <d_expression+0x164>
    2704:	2b03      	cmp	r3, #3
    2706:	d04d      	beq.n	27a4 <d_expression+0x1d6>
    2708:	2b01      	cmp	r3, #1
    270a:	d16a      	bne.n	27e2 <d_expression+0x214>
    270c:	2e2e      	cmp	r6, #46	; 0x2e
    270e:	d109      	bne.n	2724 <d_expression+0x156>
    2710:	68e3      	ldr	r3, [r4, #12]
    2712:	781a      	ldrb	r2, [r3, #0]
    2714:	2a5f      	cmp	r2, #95	; 0x5f
    2716:	d105      	bne.n	2724 <d_expression+0x156>
    2718:	3301      	adds	r3, #1
    271a:	4620      	mov	r0, r4
    271c:	60e3      	str	r3, [r4, #12]
    271e:	f000 f86d 	bl	27fc <d_exprlist>
    2722:	e002      	b.n	272a <d_expression+0x15c>
    2724:	4620      	mov	r0, r4
    2726:	f7ff ff52 	bl	25ce <d_expression>
    272a:	4603      	mov	r3, r0
    272c:	212f      	movs	r1, #47	; 0x2f
    272e:	4620      	mov	r0, r4
    2730:	e052      	b.n	27d8 <d_expression+0x20a>
    2732:	686b      	ldr	r3, [r5, #4]
    2734:	4620      	mov	r0, r4
    2736:	681f      	ldr	r7, [r3, #0]
    2738:	f7ff ff49 	bl	25ce <d_expression>
    273c:	492c      	ldr	r1, [pc, #176]	; (27f0 <d_expression+0x222>)
    273e:	4606      	mov	r6, r0
    2740:	4638      	mov	r0, r7
    2742:	f005 f920 	bl	7986 <strcmp>
    2746:	b918      	cbnz	r0, 2750 <d_expression+0x182>
    2748:	4620      	mov	r0, r4
    274a:	f000 f857 	bl	27fc <d_exprlist>
    274e:	e01e      	b.n	278e <d_expression+0x1c0>
    2750:	4638      	mov	r0, r7
    2752:	4928      	ldr	r1, [pc, #160]	; (27f4 <d_expression+0x226>)
    2754:	f005 f917 	bl	7986 <strcmp>
    2758:	b120      	cbz	r0, 2764 <d_expression+0x196>
    275a:	4638      	mov	r0, r7
    275c:	4926      	ldr	r1, [pc, #152]	; (27f8 <d_expression+0x22a>)
    275e:	f005 f912 	bl	7986 <strcmp>
    2762:	b988      	cbnz	r0, 2788 <d_expression+0x1ba>
    2764:	4620      	mov	r0, r4
    2766:	f7ff fe6d 	bl	2444 <d_unqualified_name>
    276a:	68e3      	ldr	r3, [r4, #12]
    276c:	781b      	ldrb	r3, [r3, #0]
    276e:	2b49      	cmp	r3, #73	; 0x49
    2770:	4607      	mov	r7, r0
    2772:	d10d      	bne.n	2790 <d_expression+0x1c2>
    2774:	4620      	mov	r0, r4
    2776:	f7ff f9ed 	bl	1b54 <d_template_args>
    277a:	2104      	movs	r1, #4
    277c:	463a      	mov	r2, r7
    277e:	4603      	mov	r3, r0
    2780:	4620      	mov	r0, r4
    2782:	f7fe fd5b 	bl	123c <d_make_comp>
    2786:	e002      	b.n	278e <d_expression+0x1c0>
    2788:	4620      	mov	r0, r4
    278a:	f7ff ff20 	bl	25ce <d_expression>
    278e:	4607      	mov	r7, r0
    2790:	2131      	movs	r1, #49	; 0x31
    2792:	463b      	mov	r3, r7
    2794:	4620      	mov	r0, r4
    2796:	4632      	mov	r2, r6
    2798:	f7fe fd50 	bl	123c <d_make_comp>
    279c:	2130      	movs	r1, #48	; 0x30
    279e:	4603      	mov	r3, r0
    27a0:	4620      	mov	r0, r4
    27a2:	e019      	b.n	27d8 <d_expression+0x20a>
    27a4:	4620      	mov	r0, r4
    27a6:	f7ff ff12 	bl	25ce <d_expression>
    27aa:	4606      	mov	r6, r0
    27ac:	4620      	mov	r0, r4
    27ae:	f7ff ff0e 	bl	25ce <d_expression>
    27b2:	4607      	mov	r7, r0
    27b4:	4620      	mov	r0, r4
    27b6:	f7ff ff0a 	bl	25ce <d_expression>
    27ba:	2134      	movs	r1, #52	; 0x34
    27bc:	463a      	mov	r2, r7
    27be:	4603      	mov	r3, r0
    27c0:	4620      	mov	r0, r4
    27c2:	f7fe fd3b 	bl	123c <d_make_comp>
    27c6:	2133      	movs	r1, #51	; 0x33
    27c8:	4632      	mov	r2, r6
    27ca:	4603      	mov	r3, r0
    27cc:	4620      	mov	r0, r4
    27ce:	f7fe fd35 	bl	123c <d_make_comp>
    27d2:	2132      	movs	r1, #50	; 0x32
    27d4:	4603      	mov	r3, r0
    27d6:	4620      	mov	r0, r4
    27d8:	462a      	mov	r2, r5
    27da:	e8bd 41f0 	ldmia.w	sp!, {r4, r5, r6, r7, r8, lr}
    27de:	f7fe bd2d 	b.w	123c <d_make_comp>
    27e2:	2500      	movs	r5, #0
    27e4:	4628      	mov	r0, r5
    27e6:	e8bd 81f0 	ldmia.w	sp!, {r4, r5, r6, r7, r8, pc}
    27ea:	bf00      	nop
    27ec:	0000fd9d 	.word	0x0000fd9d
    27f0:	0000fbde 	.word	0x0000fbde
    27f4:	0000fbe1 	.word	0x0000fbe1
    27f8:	0000fbe4 	.word	0x0000fbe4

000027fc <d_exprlist>:
    27fc:	68c3      	ldr	r3, [r0, #12]
    27fe:	b537      	push	{r0, r1, r2, r4, r5, lr}
    2800:	2200      	movs	r2, #0
    2802:	9201      	str	r2, [sp, #4]
    2804:	4604      	mov	r4, r0
    2806:	7819      	ldrb	r1, [r3, #0]
    2808:	2945      	cmp	r1, #69	; 0x45
    280a:	d001      	beq.n	2810 <d_exprlist+0x14>
    280c:	ad01      	add	r5, sp, #4
    280e:	e008      	b.n	2822 <d_exprlist+0x26>
    2810:	3301      	adds	r3, #1
    2812:	212a      	movs	r1, #42	; 0x2a
    2814:	60c3      	str	r3, [r0, #12]
    2816:	4613      	mov	r3, r2
    2818:	b003      	add	sp, #12
    281a:	e8bd 4030 	ldmia.w	sp!, {r4, r5, lr}
    281e:	f7fe bd0d 	b.w	123c <d_make_comp>
    2822:	4620      	mov	r0, r4
    2824:	f7ff fed3 	bl	25ce <d_expression>
    2828:	4602      	mov	r2, r0
    282a:	b188      	cbz	r0, 2850 <d_exprlist+0x54>
    282c:	4620      	mov	r0, r4
    282e:	212a      	movs	r1, #42	; 0x2a
    2830:	2300      	movs	r3, #0
    2832:	f7fe fd03 	bl	123c <d_make_comp>
    2836:	6028      	str	r0, [r5, #0]
    2838:	b150      	cbz	r0, 2850 <d_exprlist+0x54>
    283a:	68e3      	ldr	r3, [r4, #12]
    283c:	781a      	ldrb	r2, [r3, #0]
    283e:	2a45      	cmp	r2, #69	; 0x45
    2840:	d002      	beq.n	2848 <d_exprlist+0x4c>
    2842:	f100 0508 	add.w	r5, r0, #8
    2846:	e7ec      	b.n	2822 <d_exprlist+0x26>
    2848:	3301      	adds	r3, #1
    284a:	9801      	ldr	r0, [sp, #4]
    284c:	60e3      	str	r3, [r4, #12]
    284e:	e7ff      	b.n	2850 <d_exprlist+0x54>
    2850:	b003      	add	sp, #12
    2852:	bd30      	pop	{r4, r5, pc}

00002854 <d_print_error.clone.1>:
    2854:	2301      	movs	r3, #1
    2856:	6003      	str	r3, [r0, #0]
    2858:	4770      	bx	lr

0000285a <d_print_saw_error.clone.2>:
    285a:	3800      	subs	r0, #0
    285c:	bf18      	it	ne
    285e:	2001      	movne	r0, #1
    2860:	4770      	bx	lr

00002862 <d_lookup_template_argument.clone.4>:
    2862:	b510      	push	{r4, lr}
    2864:	f8d0 4114 	ldr.w	r4, [r0, #276]	; 0x114
    2868:	b92c      	cbnz	r4, 2876 <d_lookup_template_argument.clone.4+0x14>
    286a:	f500 708e 	add.w	r0, r0, #284	; 0x11c
    286e:	f7ff fff1 	bl	2854 <d_print_error.clone.1>
    2872:	4620      	mov	r0, r4
    2874:	bd10      	pop	{r4, pc}
    2876:	6863      	ldr	r3, [r4, #4]
    2878:	6809      	ldr	r1, [r1, #0]
    287a:	6898      	ldr	r0, [r3, #8]
    287c:	e8bd 4010 	ldmia.w	sp!, {r4, lr}
    2880:	f7fe be3a 	b.w	14f8 <d_index_template_argument>

00002884 <d_find_pack>:
    2884:	b538      	push	{r3, r4, r5, lr}
    2886:	4605      	mov	r5, r0
    2888:	460c      	mov	r4, r1
    288a:	2c00      	cmp	r4, #0
    288c:	d02d      	beq.n	28ea <d_find_pack+0x66>
    288e:	7823      	ldrb	r3, [r4, #0]
    2890:	2b16      	cmp	r3, #22
    2892:	d02c      	beq.n	28ee <d_find_pack+0x6a>
    2894:	d80c      	bhi.n	28b0 <d_find_pack+0x2c>
    2896:	2b06      	cmp	r3, #6
    2898:	d029      	beq.n	28ee <d_find_pack+0x6a>
    289a:	d804      	bhi.n	28a6 <d_find_pack+0x22>
    289c:	2b00      	cmp	r3, #0
    289e:	d026      	beq.n	28ee <d_find_pack+0x6a>
    28a0:	2b05      	cmp	r3, #5
    28a2:	d11b      	bne.n	28dc <d_find_pack+0x58>
    28a4:	e010      	b.n	28c8 <d_find_pack+0x44>
    28a6:	2b07      	cmp	r3, #7
    28a8:	d01d      	beq.n	28e6 <d_find_pack+0x62>
    28aa:	2b08      	cmp	r3, #8
    28ac:	d116      	bne.n	28dc <d_find_pack+0x58>
    28ae:	e01a      	b.n	28e6 <d_find_pack+0x62>
    28b0:	2b2d      	cmp	r3, #45	; 0x2d
    28b2:	d018      	beq.n	28e6 <d_find_pack+0x62>
    28b4:	d803      	bhi.n	28be <d_find_pack+0x3a>
    28b6:	2b23      	cmp	r3, #35	; 0x23
    28b8:	d019      	beq.n	28ee <d_find_pack+0x6a>
    28ba:	2b2c      	cmp	r3, #44	; 0x2c
    28bc:	e002      	b.n	28c4 <d_find_pack+0x40>
    28be:	2b39      	cmp	r3, #57	; 0x39
    28c0:	d015      	beq.n	28ee <d_find_pack+0x6a>
    28c2:	2b41      	cmp	r3, #65	; 0x41
    28c4:	d10a      	bne.n	28dc <d_find_pack+0x58>
    28c6:	e012      	b.n	28ee <d_find_pack+0x6a>
    28c8:	4628      	mov	r0, r5
    28ca:	1d21      	adds	r1, r4, #4
    28cc:	f7ff ffc9 	bl	2862 <d_lookup_template_argument.clone.4>
    28d0:	b170      	cbz	r0, 28f0 <d_find_pack+0x6c>
    28d2:	7803      	ldrb	r3, [r0, #0]
    28d4:	2b2b      	cmp	r3, #43	; 0x2b
    28d6:	bf18      	it	ne
    28d8:	2000      	movne	r0, #0
    28da:	bd38      	pop	{r3, r4, r5, pc}
    28dc:	4628      	mov	r0, r5
    28de:	6861      	ldr	r1, [r4, #4]
    28e0:	f7ff ffd0 	bl	2884 <d_find_pack>
    28e4:	b920      	cbnz	r0, 28f0 <d_find_pack+0x6c>
    28e6:	68a4      	ldr	r4, [r4, #8]
    28e8:	e7cf      	b.n	288a <d_find_pack+0x6>
    28ea:	4620      	mov	r0, r4
    28ec:	bd38      	pop	{r3, r4, r5, pc}
    28ee:	2000      	movs	r0, #0
    28f0:	bd38      	pop	{r3, r4, r5, pc}

000028f2 <d_print_cast.clone.6>:
    28f2:	b573      	push	{r0, r1, r4, r5, r6, lr}
    28f4:	460d      	mov	r5, r1
    28f6:	6809      	ldr	r1, [r1, #0]
    28f8:	4604      	mov	r4, r0
    28fa:	780b      	ldrb	r3, [r1, #0]
    28fc:	2b04      	cmp	r3, #4
    28fe:	d002      	beq.n	2906 <d_print_cast.clone.6+0x14>
    2900:	f000 f834 	bl	296c <d_print_comp>
    2904:	e031      	b.n	296a <d_print_cast.clone.6+0x78>
    2906:	f8d0 2114 	ldr.w	r2, [r0, #276]	; 0x114
    290a:	2300      	movs	r3, #0
    290c:	f8d0 6118 	ldr.w	r6, [r0, #280]	; 0x118
    2910:	f8c0 3118 	str.w	r3, [r0, #280]	; 0x118
    2914:	ab02      	add	r3, sp, #8
    2916:	9101      	str	r1, [sp, #4]
    2918:	f843 2d08 	str.w	r2, [r3, #-8]!
    291c:	f8c0 3114 	str.w	r3, [r0, #276]	; 0x114
    2920:	6849      	ldr	r1, [r1, #4]
    2922:	f000 f823 	bl	296c <d_print_comp>
    2926:	9b00      	ldr	r3, [sp, #0]
    2928:	f8c4 3114 	str.w	r3, [r4, #276]	; 0x114
    292c:	f894 3108 	ldrb.w	r3, [r4, #264]	; 0x108
    2930:	2b3c      	cmp	r3, #60	; 0x3c
    2932:	d103      	bne.n	293c <d_print_cast.clone.6+0x4a>
    2934:	4620      	mov	r0, r4
    2936:	2120      	movs	r1, #32
    2938:	f7fe fdbd 	bl	14b6 <d_append_char>
    293c:	213c      	movs	r1, #60	; 0x3c
    293e:	4620      	mov	r0, r4
    2940:	f7fe fdb9 	bl	14b6 <d_append_char>
    2944:	682b      	ldr	r3, [r5, #0]
    2946:	4620      	mov	r0, r4
    2948:	6899      	ldr	r1, [r3, #8]
    294a:	f000 f80f 	bl	296c <d_print_comp>
    294e:	f894 3108 	ldrb.w	r3, [r4, #264]	; 0x108
    2952:	2b3e      	cmp	r3, #62	; 0x3e
    2954:	d103      	bne.n	295e <d_print_cast.clone.6+0x6c>
    2956:	4620      	mov	r0, r4
    2958:	2120      	movs	r1, #32
    295a:	f7fe fdac 	bl	14b6 <d_append_char>
    295e:	4620      	mov	r0, r4
    2960:	213e      	movs	r1, #62	; 0x3e
    2962:	f7fe fda8 	bl	14b6 <d_append_char>
    2966:	f8c4 6118 	str.w	r6, [r4, #280]	; 0x118
    296a:	bd7c      	pop	{r2, r3, r4, r5, r6, pc}

0000296c <d_print_comp>:
    296c:	e92d 47f0 	stmdb	sp!, {r4, r5, r6, r7, r8, r9, sl, lr}
    2970:	4604      	mov	r4, r0
    2972:	b092      	sub	sp, #72	; 0x48
    2974:	460d      	mov	r5, r1
    2976:	b919      	cbnz	r1, 2980 <d_print_comp+0x14>
    2978:	f500 708e 	add.w	r0, r0, #284	; 0x11c
    297c:	f000 bcab 	b.w	32d6 <d_print_comp+0x96a>
    2980:	f8d0 011c 	ldr.w	r0, [r0, #284]	; 0x11c
    2984:	f7ff ff69 	bl	285a <d_print_saw_error.clone.2>
    2988:	2800      	cmp	r0, #0
    298a:	f040 84a6 	bne.w	32da <d_print_comp+0x96e>
    298e:	782b      	ldrb	r3, [r5, #0]
    2990:	2b41      	cmp	r3, #65	; 0x41
    2992:	f200 849e 	bhi.w	32d2 <d_print_comp+0x966>
    2996:	e8df f013 	tbh	[pc, r3, lsl #1]
    299a:	0042      	.short	0x0042
    299c:	008b008b 	.word	0x008b008b
    29a0:	011d0099 	.word	0x011d0099
    29a4:	0471015d 	.word	0x0471015d
    29a8:	017b0433 	.word	0x017b0433
    29ac:	01830180 	.word	0x01830180
    29b0:	01910186 	.word	0x01910186
    29b4:	01970194 	.word	0x01970194
    29b8:	019d019a 	.word	0x019d019a
    29bc:	01a301a0 	.word	0x01a301a0
    29c0:	01a901a6 	.word	0x01a901a6
    29c4:	01af01ac 	.word	0x01af01ac
    29c8:	01b301b3 	.word	0x01b301b3
    29cc:	01c501b3 	.word	0x01c501b3
    29d0:	01c501c5 	.word	0x01c501c5
    29d4:	01c501c5 	.word	0x01c501c5
    29d8:	01c501c5 	.word	0x01c501c5
    29dc:	01c501c5 	.word	0x01c501c5
    29e0:	047b01f7 	.word	0x047b01f7
    29e4:	023a0202 	.word	0x023a0202
    29e8:	02ae0293 	.word	0x02ae0293
    29ec:	02ca0293 	.word	0x02ca0293
    29f0:	02f402ca 	.word	0x02f402ca
    29f4:	030f030a 	.word	0x030f030a
    29f8:	03300318 	.word	0x03300318
    29fc:	037e049c 	.word	0x037e049c
    2a00:	049c049c 	.word	0x049c049c
    2a04:	03a103a1 	.word	0x03a103a1
    2a08:	042f042c 	.word	0x042f042c
    2a0c:	04270436 	.word	0x04270436
    2a10:	04740439 	.word	0x04740439
    2a14:	04800477 	.word	0x04800477
    2a18:	048e049c 	.word	0x048e049c
    2a1c:	0444      	.short	0x0444
    2a1e:	6823      	ldr	r3, [r4, #0]
    2a20:	f013 0f04 	tst.w	r3, #4
    2a24:	f000 8168 	beq.w	2cf8 <d_print_comp+0x38c>
    2a28:	686e      	ldr	r6, [r5, #4]
    2a2a:	68ad      	ldr	r5, [r5, #8]
    2a2c:	1975      	adds	r5, r6, r5
    2a2e:	e03b      	b.n	2aa8 <d_print_comp+0x13c>
    2a30:	1bab      	subs	r3, r5, r6
    2a32:	2b03      	cmp	r3, #3
    2a34:	dd33      	ble.n	2a9e <d_print_comp+0x132>
    2a36:	7833      	ldrb	r3, [r6, #0]
    2a38:	2b5f      	cmp	r3, #95	; 0x5f
    2a3a:	d130      	bne.n	2a9e <d_print_comp+0x132>
    2a3c:	7873      	ldrb	r3, [r6, #1]
    2a3e:	2b5f      	cmp	r3, #95	; 0x5f
    2a40:	d12d      	bne.n	2a9e <d_print_comp+0x132>
    2a42:	78b3      	ldrb	r3, [r6, #2]
    2a44:	2b55      	cmp	r3, #85	; 0x55
    2a46:	d12a      	bne.n	2a9e <d_print_comp+0x132>
    2a48:	1cf2      	adds	r2, r6, #3
    2a4a:	2100      	movs	r1, #0
    2a4c:	e019      	b.n	2a82 <d_print_comp+0x116>
    2a4e:	f812 3b01 	ldrb.w	r3, [r2], #1
    2a52:	f1a3 0030 	sub.w	r0, r3, #48	; 0x30
    2a56:	fa5f fe80 	uxtb.w	lr, r0
    2a5a:	f1be 0f09 	cmp.w	lr, #9
    2a5e:	d801      	bhi.n	2a64 <d_print_comp+0xf8>
    2a60:	4603      	mov	r3, r0
    2a62:	e00c      	b.n	2a7e <d_print_comp+0x112>
    2a64:	f1a3 0041 	sub.w	r0, r3, #65	; 0x41
    2a68:	b2c0      	uxtb	r0, r0
    2a6a:	2805      	cmp	r0, #5
    2a6c:	d801      	bhi.n	2a72 <d_print_comp+0x106>
    2a6e:	3b37      	subs	r3, #55	; 0x37
    2a70:	e005      	b.n	2a7e <d_print_comp+0x112>
    2a72:	f1a3 0061 	sub.w	r0, r3, #97	; 0x61
    2a76:	b2c0      	uxtb	r0, r0
    2a78:	2805      	cmp	r0, #5
    2a7a:	d806      	bhi.n	2a8a <d_print_comp+0x11e>
    2a7c:	3b57      	subs	r3, #87	; 0x57
    2a7e:	eb03 1101 	add.w	r1, r3, r1, lsl #4
    2a82:	42aa      	cmp	r2, r5
    2a84:	4617      	mov	r7, r2
    2a86:	d3e2      	bcc.n	2a4e <d_print_comp+0xe2>
    2a88:	e009      	b.n	2a9e <d_print_comp+0x132>
    2a8a:	2b5f      	cmp	r3, #95	; 0x5f
    2a8c:	d107      	bne.n	2a9e <d_print_comp+0x132>
    2a8e:	29ff      	cmp	r1, #255	; 0xff
    2a90:	d805      	bhi.n	2a9e <d_print_comp+0x132>
    2a92:	4620      	mov	r0, r4
    2a94:	b2c9      	uxtb	r1, r1
    2a96:	f7fe fd0e 	bl	14b6 <d_append_char>
    2a9a:	463e      	mov	r6, r7
    2a9c:	e003      	b.n	2aa6 <d_print_comp+0x13a>
    2a9e:	4620      	mov	r0, r4
    2aa0:	7831      	ldrb	r1, [r6, #0]
    2aa2:	f7fe fd08 	bl	14b6 <d_append_char>
    2aa6:	3601      	adds	r6, #1
    2aa8:	42ae      	cmp	r6, r5
    2aaa:	d3c1      	bcc.n	2a30 <d_print_comp+0xc4>
    2aac:	f000 bc15 	b.w	32da <d_print_comp+0x96e>
    2ab0:	4620      	mov	r0, r4
    2ab2:	6869      	ldr	r1, [r5, #4]
    2ab4:	f7ff ff5a 	bl	296c <d_print_comp>
    2ab8:	6823      	ldr	r3, [r4, #0]
    2aba:	f013 0f04 	tst.w	r3, #4
    2abe:	d102      	bne.n	2ac6 <d_print_comp+0x15a>
    2ac0:	4620      	mov	r0, r4
    2ac2:	49a0      	ldr	r1, [pc, #640]	; (2d44 <d_print_comp+0x3d8>)
    2ac4:	e275      	b.n	2fb2 <d_print_comp+0x646>
    2ac6:	4620      	mov	r0, r4
    2ac8:	212e      	movs	r1, #46	; 0x2e
    2aca:	e0e3      	b.n	2c94 <d_print_comp+0x328>
    2acc:	f8d4 a118 	ldr.w	sl, [r4, #280]	; 0x118
    2ad0:	2600      	movs	r6, #0
    2ad2:	466b      	mov	r3, sp
    2ad4:	f8c4 6118 	str.w	r6, [r4, #280]	; 0x118
    2ad8:	686f      	ldr	r7, [r5, #4]
    2ada:	e01a      	b.n	2b12 <d_print_comp+0x1a6>
    2adc:	2e04      	cmp	r6, #4
    2ade:	f000 83f8 	beq.w	32d2 <d_print_comp+0x966>
    2ae2:	f8d4 2118 	ldr.w	r2, [r4, #280]	; 0x118
    2ae6:	a900      	add	r1, sp, #0
    2ae8:	f8d4 8114 	ldr.w	r8, [r4, #276]	; 0x114
    2aec:	605f      	str	r7, [r3, #4]
    2aee:	601a      	str	r2, [r3, #0]
    2af0:	eb01 1206 	add.w	r2, r1, r6, lsl #4
    2af4:	f8c4 2118 	str.w	r2, [r4, #280]	; 0x118
    2af8:	2200      	movs	r2, #0
    2afa:	609a      	str	r2, [r3, #8]
    2afc:	3601      	adds	r6, #1
    2afe:	783a      	ldrb	r2, [r7, #0]
    2b00:	f8c3 800c 	str.w	r8, [r3, #12]
    2b04:	3310      	adds	r3, #16
    2b06:	f1a2 011a 	sub.w	r1, r2, #26
    2b0a:	b2c9      	uxtb	r1, r1
    2b0c:	2902      	cmp	r1, #2
    2b0e:	d803      	bhi.n	2b18 <d_print_comp+0x1ac>
    2b10:	687f      	ldr	r7, [r7, #4]
    2b12:	2f00      	cmp	r7, #0
    2b14:	d1e2      	bne.n	2adc <d_print_comp+0x170>
    2b16:	e3dc      	b.n	32d2 <d_print_comp+0x966>
    2b18:	2a04      	cmp	r2, #4
    2b1a:	d106      	bne.n	2b2a <d_print_comp+0x1be>
    2b1c:	ab12      	add	r3, sp, #72	; 0x48
    2b1e:	9711      	str	r7, [sp, #68]	; 0x44
    2b20:	f843 8d08 	str.w	r8, [r3, #-8]!
    2b24:	f8c4 3114 	str.w	r3, [r4, #276]	; 0x114
    2b28:	e033      	b.n	2b92 <d_print_comp+0x226>
    2b2a:	2a02      	cmp	r2, #2
    2b2c:	d131      	bne.n	2b92 <d_print_comp+0x226>
    2b2e:	f8d7 c008 	ldr.w	ip, [r7, #8]
    2b32:	aa00      	add	r2, sp, #0
    2b34:	eb02 1e06 	add.w	lr, r2, r6, lsl #4
    2b38:	f89c 3000 	ldrb.w	r3, [ip]
    2b3c:	2b3f      	cmp	r3, #63	; 0x3f
    2b3e:	bf08      	it	eq
    2b40:	f8dc c004 	ldreq.w	ip, [ip, #4]
    2b44:	e01f      	b.n	2b86 <d_print_comp+0x21a>
    2b46:	2e03      	cmp	r6, #3
    2b48:	f10e 0e10 	add.w	lr, lr, #16
    2b4c:	f200 83c1 	bhi.w	32d2 <d_print_comp+0x966>
    2b50:	f1ae 0320 	sub.w	r3, lr, #32
    2b54:	f1ae 0910 	sub.w	r9, lr, #16
    2b58:	cb0f      	ldmia	r3, {r0, r1, r2, r3}
    2b5a:	e889 000f 	stmia.w	r9, {r0, r1, r2, r3}
    2b5e:	1e73      	subs	r3, r6, #1
    2b60:	a900      	add	r1, sp, #0
    2b62:	f84e cc1c 	str.w	ip, [lr, #-28]
    2b66:	eb01 1303 	add.w	r3, r1, r3, lsl #4
    2b6a:	f84e 8c14 	str.w	r8, [lr, #-20]
    2b6e:	f84e 3c10 	str.w	r3, [lr, #-16]
    2b72:	eb01 1306 	add.w	r3, r1, r6, lsl #4
    2b76:	f8c4 3118 	str.w	r3, [r4, #280]	; 0x118
    2b7a:	2300      	movs	r3, #0
    2b7c:	f84e 3c18 	str.w	r3, [lr, #-24]
    2b80:	3601      	adds	r6, #1
    2b82:	f8dc c004 	ldr.w	ip, [ip, #4]
    2b86:	f89c 3000 	ldrb.w	r3, [ip]
    2b8a:	3b1a      	subs	r3, #26
    2b8c:	b2db      	uxtb	r3, r3
    2b8e:	2b02      	cmp	r3, #2
    2b90:	d9d9      	bls.n	2b46 <d_print_comp+0x1da>
    2b92:	68a9      	ldr	r1, [r5, #8]
    2b94:	4620      	mov	r0, r4
    2b96:	f7ff fee9 	bl	296c <d_print_comp>
    2b9a:	783b      	ldrb	r3, [r7, #0]
    2b9c:	aa00      	add	r2, sp, #0
    2b9e:	2b04      	cmp	r3, #4
    2ba0:	eb02 1506 	add.w	r5, r2, r6, lsl #4
    2ba4:	bf04      	itt	eq
    2ba6:	9b10      	ldreq	r3, [sp, #64]	; 0x40
    2ba8:	f8c4 3114 	streq.w	r3, [r4, #276]	; 0x114
    2bac:	e00d      	b.n	2bca <d_print_comp+0x25e>
    2bae:	f855 3c08 	ldr.w	r3, [r5, #-8]
    2bb2:	3e01      	subs	r6, #1
    2bb4:	b943      	cbnz	r3, 2bc8 <d_print_comp+0x25c>
    2bb6:	4620      	mov	r0, r4
    2bb8:	2120      	movs	r1, #32
    2bba:	f7fe fc7c 	bl	14b6 <d_append_char>
    2bbe:	4620      	mov	r0, r4
    2bc0:	f855 1c0c 	ldr.w	r1, [r5, #-12]
    2bc4:	f000 fba4 	bl	3310 <d_print_mod>
    2bc8:	3d10      	subs	r5, #16
    2bca:	2e00      	cmp	r6, #0
    2bcc:	d1ef      	bne.n	2bae <d_print_comp+0x242>
    2bce:	f8c4 a118 	str.w	sl, [r4, #280]	; 0x118
    2bd2:	e382      	b.n	32da <d_print_comp+0x96e>
    2bd4:	2300      	movs	r3, #0
    2bd6:	f8d4 7118 	ldr.w	r7, [r4, #280]	; 0x118
    2bda:	f8c4 3118 	str.w	r3, [r4, #280]	; 0x118
    2bde:	6823      	ldr	r3, [r4, #0]
    2be0:	686e      	ldr	r6, [r5, #4]
    2be2:	f013 0f04 	tst.w	r3, #4
    2be6:	d012      	beq.n	2c0e <d_print_comp+0x2a2>
    2be8:	7833      	ldrb	r3, [r6, #0]
    2bea:	b983      	cbnz	r3, 2c0e <d_print_comp+0x2a2>
    2bec:	68b2      	ldr	r2, [r6, #8]
    2bee:	2a06      	cmp	r2, #6
    2bf0:	d10d      	bne.n	2c0e <d_print_comp+0x2a2>
    2bf2:	6870      	ldr	r0, [r6, #4]
    2bf4:	4954      	ldr	r1, [pc, #336]	; (2d48 <d_print_comp+0x3dc>)
    2bf6:	f004 fee1 	bl	79bc <strncmp>
    2bfa:	b940      	cbnz	r0, 2c0e <d_print_comp+0x2a2>
    2bfc:	4620      	mov	r0, r4
    2bfe:	68a9      	ldr	r1, [r5, #8]
    2c00:	f7ff feb4 	bl	296c <d_print_comp>
    2c04:	4620      	mov	r0, r4
    2c06:	4951      	ldr	r1, [pc, #324]	; (2d4c <d_print_comp+0x3e0>)
    2c08:	f7fe fc88 	bl	151c <d_append_string>
    2c0c:	e01f      	b.n	2c4e <d_print_comp+0x2e2>
    2c0e:	4620      	mov	r0, r4
    2c10:	4631      	mov	r1, r6
    2c12:	f7ff feab 	bl	296c <d_print_comp>
    2c16:	f894 3108 	ldrb.w	r3, [r4, #264]	; 0x108
    2c1a:	2b3c      	cmp	r3, #60	; 0x3c
    2c1c:	d103      	bne.n	2c26 <d_print_comp+0x2ba>
    2c1e:	4620      	mov	r0, r4
    2c20:	2120      	movs	r1, #32
    2c22:	f7fe fc48 	bl	14b6 <d_append_char>
    2c26:	213c      	movs	r1, #60	; 0x3c
    2c28:	4620      	mov	r0, r4
    2c2a:	f7fe fc44 	bl	14b6 <d_append_char>
    2c2e:	4620      	mov	r0, r4
    2c30:	68a9      	ldr	r1, [r5, #8]
    2c32:	f7ff fe9b 	bl	296c <d_print_comp>
    2c36:	f894 3108 	ldrb.w	r3, [r4, #264]	; 0x108
    2c3a:	2b3e      	cmp	r3, #62	; 0x3e
    2c3c:	d103      	bne.n	2c46 <d_print_comp+0x2da>
    2c3e:	4620      	mov	r0, r4
    2c40:	2120      	movs	r1, #32
    2c42:	f7fe fc38 	bl	14b6 <d_append_char>
    2c46:	4620      	mov	r0, r4
    2c48:	213e      	movs	r1, #62	; 0x3e
    2c4a:	f7fe fc34 	bl	14b6 <d_append_char>
    2c4e:	f8c4 7118 	str.w	r7, [r4, #280]	; 0x118
    2c52:	e342      	b.n	32da <d_print_comp+0x96e>
    2c54:	1d29      	adds	r1, r5, #4
    2c56:	4620      	mov	r0, r4
    2c58:	f7ff fe03 	bl	2862 <d_lookup_template_argument.clone.4>
    2c5c:	4601      	mov	r1, r0
    2c5e:	2800      	cmp	r0, #0
    2c60:	f000 8337 	beq.w	32d2 <d_print_comp+0x966>
    2c64:	7803      	ldrb	r3, [r0, #0]
    2c66:	2b2b      	cmp	r3, #43	; 0x2b
    2c68:	d107      	bne.n	2c7a <d_print_comp+0x30e>
    2c6a:	f8d4 1120 	ldr.w	r1, [r4, #288]	; 0x120
    2c6e:	f7fe fc43 	bl	14f8 <d_index_template_argument>
    2c72:	4601      	mov	r1, r0
    2c74:	2800      	cmp	r0, #0
    2c76:	f000 832c 	beq.w	32d2 <d_print_comp+0x966>
    2c7a:	f8d4 5114 	ldr.w	r5, [r4, #276]	; 0x114
    2c7e:	4620      	mov	r0, r4
    2c80:	682b      	ldr	r3, [r5, #0]
    2c82:	f8c4 3114 	str.w	r3, [r4, #276]	; 0x114
    2c86:	f7ff fe71 	bl	296c <d_print_comp>
    2c8a:	f8c4 5114 	str.w	r5, [r4, #276]	; 0x114
    2c8e:	e324      	b.n	32da <d_print_comp+0x96e>
    2c90:	4620      	mov	r0, r4
    2c92:	217e      	movs	r1, #126	; 0x7e
    2c94:	f7fe fc0f 	bl	14b6 <d_append_char>
    2c98:	e2b2      	b.n	3200 <d_print_comp+0x894>
    2c9a:	4620      	mov	r0, r4
    2c9c:	492c      	ldr	r1, [pc, #176]	; (2d50 <d_print_comp+0x3e4>)
    2c9e:	e2f5      	b.n	328c <d_print_comp+0x920>
    2ca0:	4620      	mov	r0, r4
    2ca2:	492c      	ldr	r1, [pc, #176]	; (2d54 <d_print_comp+0x3e8>)
    2ca4:	e2f2      	b.n	328c <d_print_comp+0x920>
    2ca6:	4620      	mov	r0, r4
    2ca8:	492b      	ldr	r1, [pc, #172]	; (2d58 <d_print_comp+0x3ec>)
    2caa:	f7fe fc37 	bl	151c <d_append_string>
    2cae:	4620      	mov	r0, r4
    2cb0:	6869      	ldr	r1, [r5, #4]
    2cb2:	f7ff fe5b 	bl	296c <d_print_comp>
    2cb6:	4620      	mov	r0, r4
    2cb8:	4928      	ldr	r1, [pc, #160]	; (2d5c <d_print_comp+0x3f0>)
    2cba:	e17a      	b.n	2fb2 <d_print_comp+0x646>
    2cbc:	4620      	mov	r0, r4
    2cbe:	4928      	ldr	r1, [pc, #160]	; (2d60 <d_print_comp+0x3f4>)
    2cc0:	e2e4      	b.n	328c <d_print_comp+0x920>
    2cc2:	4620      	mov	r0, r4
    2cc4:	4927      	ldr	r1, [pc, #156]	; (2d64 <d_print_comp+0x3f8>)
    2cc6:	e2e1      	b.n	328c <d_print_comp+0x920>
    2cc8:	4620      	mov	r0, r4
    2cca:	4927      	ldr	r1, [pc, #156]	; (2d68 <d_print_comp+0x3fc>)
    2ccc:	e2de      	b.n	328c <d_print_comp+0x920>
    2cce:	4620      	mov	r0, r4
    2cd0:	4926      	ldr	r1, [pc, #152]	; (2d6c <d_print_comp+0x400>)
    2cd2:	e2db      	b.n	328c <d_print_comp+0x920>
    2cd4:	4620      	mov	r0, r4
    2cd6:	4926      	ldr	r1, [pc, #152]	; (2d70 <d_print_comp+0x404>)
    2cd8:	e2d8      	b.n	328c <d_print_comp+0x920>
    2cda:	4620      	mov	r0, r4
    2cdc:	4925      	ldr	r1, [pc, #148]	; (2d74 <d_print_comp+0x408>)
    2cde:	e2d5      	b.n	328c <d_print_comp+0x920>
    2ce0:	4620      	mov	r0, r4
    2ce2:	4925      	ldr	r1, [pc, #148]	; (2d78 <d_print_comp+0x40c>)
    2ce4:	e2d2      	b.n	328c <d_print_comp+0x920>
    2ce6:	4620      	mov	r0, r4
    2ce8:	4924      	ldr	r1, [pc, #144]	; (2d7c <d_print_comp+0x410>)
    2cea:	e2cf      	b.n	328c <d_print_comp+0x920>
    2cec:	4620      	mov	r0, r4
    2cee:	4924      	ldr	r1, [pc, #144]	; (2d80 <d_print_comp+0x414>)
    2cf0:	e2cc      	b.n	328c <d_print_comp+0x920>
    2cf2:	4620      	mov	r0, r4
    2cf4:	4923      	ldr	r1, [pc, #140]	; (2d84 <d_print_comp+0x418>)
    2cf6:	e2c9      	b.n	328c <d_print_comp+0x920>
    2cf8:	4620      	mov	r0, r4
    2cfa:	6869      	ldr	r1, [r5, #4]
    2cfc:	68aa      	ldr	r2, [r5, #8]
    2cfe:	e153      	b.n	2fa8 <d_print_comp+0x63c>
    2d00:	f8d4 2118 	ldr.w	r2, [r4, #280]	; 0x118
    2d04:	e00c      	b.n	2d20 <d_print_comp+0x3b4>
    2d06:	6891      	ldr	r1, [r2, #8]
    2d08:	b949      	cbnz	r1, 2d1e <d_print_comp+0x3b2>
    2d0a:	6851      	ldr	r1, [r2, #4]
    2d0c:	7809      	ldrb	r1, [r1, #0]
    2d0e:	f1a1 0017 	sub.w	r0, r1, #23
    2d12:	b2c0      	uxtb	r0, r0
    2d14:	2802      	cmp	r0, #2
    2d16:	d805      	bhi.n	2d24 <d_print_comp+0x3b8>
    2d18:	4299      	cmp	r1, r3
    2d1a:	f000 82b9 	beq.w	3290 <d_print_comp+0x924>
    2d1e:	6812      	ldr	r2, [r2, #0]
    2d20:	2a00      	cmp	r2, #0
    2d22:	d1f0      	bne.n	2d06 <d_print_comp+0x39a>
    2d24:	f8d4 2118 	ldr.w	r2, [r4, #280]	; 0x118
    2d28:	ab12      	add	r3, sp, #72	; 0x48
    2d2a:	9501      	str	r5, [sp, #4]
    2d2c:	4620      	mov	r0, r4
    2d2e:	f843 2d48 	str.w	r2, [r3, #-72]!
    2d32:	f8c4 3118 	str.w	r3, [r4, #280]	; 0x118
    2d36:	2300      	movs	r3, #0
    2d38:	9302      	str	r3, [sp, #8]
    2d3a:	f8d4 3114 	ldr.w	r3, [r4, #276]	; 0x114
    2d3e:	6869      	ldr	r1, [r5, #4]
    2d40:	9303      	str	r3, [sp, #12]
    2d42:	e0cc      	b.n	2ede <d_print_comp+0x572>
    2d44:	0000fdd5 	.word	0x0000fdd5
    2d48:	0000fbe7 	.word	0x0000fbe7
    2d4c:	00010036 	.word	0x00010036
    2d50:	0000fc04 	.word	0x0000fc04
    2d54:	0000fbee 	.word	0x0000fbee
    2d58:	0000fbf7 	.word	0x0000fbf7
    2d5c:	0000fc10 	.word	0x0000fc10
    2d60:	0000fc15 	.word	0x0000fc15
    2d64:	0000fc23 	.word	0x0000fc23
    2d68:	0000fc36 	.word	0x0000fc36
    2d6c:	0000fc47 	.word	0x0000fc47
    2d70:	0000fc4b 	.word	0x0000fc4b
    2d74:	0000fc5d 	.word	0x0000fc5d
    2d78:	0000fc78 	.word	0x0000fc78
    2d7c:	0000fc88 	.word	0x0000fc88
    2d80:	0000fc9c 	.word	0x0000fc9c
    2d84:	0000fcb5 	.word	0x0000fcb5
    2d88:	6823      	ldr	r3, [r4, #0]
    2d8a:	4620      	mov	r0, r4
    2d8c:	f013 0f04 	tst.w	r3, #4
    2d90:	686b      	ldr	r3, [r5, #4]
    2d92:	bf07      	ittee	eq
    2d94:	6819      	ldreq	r1, [r3, #0]
    2d96:	685a      	ldreq	r2, [r3, #4]
    2d98:	6899      	ldrne	r1, [r3, #8]
    2d9a:	68da      	ldrne	r2, [r3, #12]
    2d9c:	e104      	b.n	2fa8 <d_print_comp+0x63c>
    2d9e:	6823      	ldr	r3, [r4, #0]
    2da0:	f013 0f20 	tst.w	r3, #32
    2da4:	d005      	beq.n	2db2 <d_print_comp+0x446>
    2da6:	4620      	mov	r0, r4
    2da8:	4629      	mov	r1, r5
    2daa:	f8d4 2118 	ldr.w	r2, [r4, #280]	; 0x118
    2dae:	f000 fbcb 	bl	3548 <d_print_function_type>
    2db2:	686b      	ldr	r3, [r5, #4]
    2db4:	b1fb      	cbz	r3, 2df6 <d_print_comp+0x48a>
    2db6:	f8d4 2118 	ldr.w	r2, [r4, #280]	; 0x118
    2dba:	ab12      	add	r3, sp, #72	; 0x48
    2dbc:	4620      	mov	r0, r4
    2dbe:	9501      	str	r5, [sp, #4]
    2dc0:	f843 2d48 	str.w	r2, [r3, #-72]!
    2dc4:	f8c4 3118 	str.w	r3, [r4, #280]	; 0x118
    2dc8:	2300      	movs	r3, #0
    2dca:	9302      	str	r3, [sp, #8]
    2dcc:	f8d4 3114 	ldr.w	r3, [r4, #276]	; 0x114
    2dd0:	6869      	ldr	r1, [r5, #4]
    2dd2:	9303      	str	r3, [sp, #12]
    2dd4:	f7ff fdca 	bl	296c <d_print_comp>
    2dd8:	9b00      	ldr	r3, [sp, #0]
    2dda:	f8c4 3118 	str.w	r3, [r4, #280]	; 0x118
    2dde:	9b02      	ldr	r3, [sp, #8]
    2de0:	2b00      	cmp	r3, #0
    2de2:	f040 827a 	bne.w	32da <d_print_comp+0x96e>
    2de6:	6823      	ldr	r3, [r4, #0]
    2de8:	f013 0f20 	tst.w	r3, #32
    2dec:	d103      	bne.n	2df6 <d_print_comp+0x48a>
    2dee:	4620      	mov	r0, r4
    2df0:	2120      	movs	r1, #32
    2df2:	f7fe fb60 	bl	14b6 <d_append_char>
    2df6:	6823      	ldr	r3, [r4, #0]
    2df8:	f013 0f20 	tst.w	r3, #32
    2dfc:	f040 826d 	bne.w	32da <d_print_comp+0x96e>
    2e00:	4620      	mov	r0, r4
    2e02:	4629      	mov	r1, r5
    2e04:	f8d4 2118 	ldr.w	r2, [r4, #280]	; 0x118
    2e08:	f000 fb9e 	bl	3548 <d_print_function_type>
    2e0c:	e265      	b.n	32da <d_print_comp+0x96e>
    2e0e:	f8d4 7118 	ldr.w	r7, [r4, #280]	; 0x118
    2e12:	ab12      	add	r3, sp, #72	; 0x48
    2e14:	9501      	str	r5, [sp, #4]
    2e16:	2601      	movs	r6, #1
    2e18:	46be      	mov	lr, r7
    2e1a:	f843 7d48 	str.w	r7, [r3, #-72]!
    2e1e:	f8c4 3118 	str.w	r3, [r4, #280]	; 0x118
    2e22:	2300      	movs	r3, #0
    2e24:	9302      	str	r3, [sp, #8]
    2e26:	f8d4 3114 	ldr.w	r3, [r4, #276]	; 0x114
    2e2a:	9303      	str	r3, [sp, #12]
    2e2c:	e01f      	b.n	2e6e <d_print_comp+0x502>
    2e2e:	f8de 3008 	ldr.w	r3, [lr, #8]
    2e32:	b9d3      	cbnz	r3, 2e6a <d_print_comp+0x4fe>
    2e34:	2e03      	cmp	r6, #3
    2e36:	f200 824c 	bhi.w	32d2 <d_print_comp+0x966>
    2e3a:	ea4f 1906 	mov.w	r9, r6, lsl #4
    2e3e:	ab12      	add	r3, sp, #72	; 0x48
    2e40:	eb03 0809 	add.w	r8, r3, r9
    2e44:	e89e 000f 	ldmia.w	lr, {r0, r1, r2, r3}
    2e48:	f1a8 0c48 	sub.w	ip, r8, #72	; 0x48
    2e4c:	e88c 000f 	stmia.w	ip, {r0, r1, r2, r3}
    2e50:	a900      	add	r1, sp, #0
    2e52:	f8d4 3118 	ldr.w	r3, [r4, #280]	; 0x118
    2e56:	f848 3c48 	str.w	r3, [r8, #-72]
    2e5a:	eb01 0309 	add.w	r3, r1, r9
    2e5e:	f8c4 3118 	str.w	r3, [r4, #280]	; 0x118
    2e62:	2301      	movs	r3, #1
    2e64:	18f6      	adds	r6, r6, r3
    2e66:	f8ce 3008 	str.w	r3, [lr, #8]
    2e6a:	f8de e000 	ldr.w	lr, [lr]
    2e6e:	f1be 0f00 	cmp.w	lr, #0
    2e72:	d006      	beq.n	2e82 <d_print_comp+0x516>
    2e74:	f8de 3004 	ldr.w	r3, [lr, #4]
    2e78:	781b      	ldrb	r3, [r3, #0]
    2e7a:	3b17      	subs	r3, #23
    2e7c:	b2db      	uxtb	r3, r3
    2e7e:	2b02      	cmp	r3, #2
    2e80:	d9d5      	bls.n	2e2e <d_print_comp+0x4c2>
    2e82:	4620      	mov	r0, r4
    2e84:	68a9      	ldr	r1, [r5, #8]
    2e86:	f7ff fd71 	bl	296c <d_print_comp>
    2e8a:	9b02      	ldr	r3, [sp, #8]
    2e8c:	f8c4 7118 	str.w	r7, [r4, #280]	; 0x118
    2e90:	2b00      	cmp	r3, #0
    2e92:	f040 8222 	bne.w	32da <d_print_comp+0x96e>
    2e96:	1e77      	subs	r7, r6, #1
    2e98:	aa00      	add	r2, sp, #0
    2e9a:	eb02 1707 	add.w	r7, r2, r7, lsl #4
    2e9e:	3704      	adds	r7, #4
    2ea0:	e004      	b.n	2eac <d_print_comp+0x540>
    2ea2:	4620      	mov	r0, r4
    2ea4:	6939      	ldr	r1, [r7, #16]
    2ea6:	3e01      	subs	r6, #1
    2ea8:	f000 fa32 	bl	3310 <d_print_mod>
    2eac:	3f10      	subs	r7, #16
    2eae:	2e01      	cmp	r6, #1
    2eb0:	d1f7      	bne.n	2ea2 <d_print_comp+0x536>
    2eb2:	4620      	mov	r0, r4
    2eb4:	1d29      	adds	r1, r5, #4
    2eb6:	f8d4 2118 	ldr.w	r2, [r4, #280]	; 0x118
    2eba:	f000 fb0b 	bl	34d4 <d_print_array_type.clone.5>
    2ebe:	e20c      	b.n	32da <d_print_comp+0x96e>
    2ec0:	f8d4 2118 	ldr.w	r2, [r4, #280]	; 0x118
    2ec4:	ab12      	add	r3, sp, #72	; 0x48
    2ec6:	4620      	mov	r0, r4
    2ec8:	9501      	str	r5, [sp, #4]
    2eca:	f843 2d48 	str.w	r2, [r3, #-72]!
    2ece:	f8c4 3118 	str.w	r3, [r4, #280]	; 0x118
    2ed2:	2300      	movs	r3, #0
    2ed4:	68a9      	ldr	r1, [r5, #8]
    2ed6:	9302      	str	r3, [sp, #8]
    2ed8:	f8d4 3114 	ldr.w	r3, [r4, #276]	; 0x114
    2edc:	9303      	str	r3, [sp, #12]
    2ede:	f7ff fd45 	bl	296c <d_print_comp>
    2ee2:	9b02      	ldr	r3, [sp, #8]
    2ee4:	b91b      	cbnz	r3, 2eee <d_print_comp+0x582>
    2ee6:	4620      	mov	r0, r4
    2ee8:	4629      	mov	r1, r5
    2eea:	f000 fa11 	bl	3310 <d_print_mod>
    2eee:	9b00      	ldr	r3, [sp, #0]
    2ef0:	f8c4 3118 	str.w	r3, [r4, #280]	; 0x118
    2ef4:	e1f1      	b.n	32da <d_print_comp+0x96e>
    2ef6:	f9b5 300a 	ldrsh.w	r3, [r5, #10]
    2efa:	b11b      	cbz	r3, 2f04 <d_print_comp+0x598>
    2efc:	4620      	mov	r0, r4
    2efe:	4991      	ldr	r1, [pc, #580]	; (3144 <d_print_comp+0x7d8>)
    2f00:	f7fe fb0c 	bl	151c <d_append_string>
    2f04:	6869      	ldr	r1, [r5, #4]
    2f06:	4b90      	ldr	r3, [pc, #576]	; (3148 <d_print_comp+0x7dc>)
    2f08:	684a      	ldr	r2, [r1, #4]
    2f0a:	429a      	cmp	r2, r3
    2f0c:	d006      	beq.n	2f1c <d_print_comp+0x5b0>
    2f0e:	4620      	mov	r0, r4
    2f10:	f7ff fd2c 	bl	296c <d_print_comp>
    2f14:	4620      	mov	r0, r4
    2f16:	2120      	movs	r1, #32
    2f18:	f7fe facd 	bl	14b6 <d_append_char>
    2f1c:	f9b5 3008 	ldrsh.w	r3, [r5, #8]
    2f20:	b113      	cbz	r3, 2f28 <d_print_comp+0x5bc>
    2f22:	4620      	mov	r0, r4
    2f24:	4989      	ldr	r1, [pc, #548]	; (314c <d_print_comp+0x7e0>)
    2f26:	e187      	b.n	3238 <d_print_comp+0x8cc>
    2f28:	4620      	mov	r0, r4
    2f2a:	4989      	ldr	r1, [pc, #548]	; (3150 <d_print_comp+0x7e4>)
    2f2c:	e184      	b.n	3238 <d_print_comp+0x8cc>
    2f2e:	6869      	ldr	r1, [r5, #4]
    2f30:	b111      	cbz	r1, 2f38 <d_print_comp+0x5cc>
    2f32:	4620      	mov	r0, r4
    2f34:	f7ff fd1a 	bl	296c <d_print_comp>
    2f38:	68ab      	ldr	r3, [r5, #8]
    2f3a:	2b00      	cmp	r3, #0
    2f3c:	f000 81cd 	beq.w	32da <d_print_comp+0x96e>
    2f40:	f8d4 3104 	ldr.w	r3, [r4, #260]	; 0x104
    2f44:	2bfd      	cmp	r3, #253	; 0xfd
    2f46:	d902      	bls.n	2f4e <d_print_comp+0x5e2>
    2f48:	4620      	mov	r0, r4
    2f4a:	f7fe fa9f 	bl	148c <d_print_flush>
    2f4e:	4620      	mov	r0, r4
    2f50:	4980      	ldr	r1, [pc, #512]	; (3154 <d_print_comp+0x7e8>)
    2f52:	f7fe fae3 	bl	151c <d_append_string>
    2f56:	4620      	mov	r0, r4
    2f58:	68a9      	ldr	r1, [r5, #8]
    2f5a:	f8d4 7124 	ldr.w	r7, [r4, #292]	; 0x124
    2f5e:	f8d4 6104 	ldr.w	r6, [r4, #260]	; 0x104
    2f62:	f7ff fd03 	bl	296c <d_print_comp>
    2f66:	f8d4 3124 	ldr.w	r3, [r4, #292]	; 0x124
    2f6a:	42bb      	cmp	r3, r7
    2f6c:	f040 81b5 	bne.w	32da <d_print_comp+0x96e>
    2f70:	f8d4 3104 	ldr.w	r3, [r4, #260]	; 0x104
    2f74:	42b3      	cmp	r3, r6
    2f76:	f040 81b0 	bne.w	32da <d_print_comp+0x96e>
    2f7a:	3b02      	subs	r3, #2
    2f7c:	f8c4 3104 	str.w	r3, [r4, #260]	; 0x104
    2f80:	e1ab      	b.n	32da <d_print_comp+0x96e>
    2f82:	4620      	mov	r0, r4
    2f84:	4974      	ldr	r1, [pc, #464]	; (3158 <d_print_comp+0x7ec>)
    2f86:	f7fe fac9 	bl	151c <d_append_string>
    2f8a:	686b      	ldr	r3, [r5, #4]
    2f8c:	685b      	ldr	r3, [r3, #4]
    2f8e:	781b      	ldrb	r3, [r3, #0]
    2f90:	3b61      	subs	r3, #97	; 0x61
    2f92:	b2db      	uxtb	r3, r3
    2f94:	2b19      	cmp	r3, #25
    2f96:	d803      	bhi.n	2fa0 <d_print_comp+0x634>
    2f98:	4620      	mov	r0, r4
    2f9a:	2120      	movs	r1, #32
    2f9c:	f7fe fa8b 	bl	14b6 <d_append_char>
    2fa0:	686b      	ldr	r3, [r5, #4]
    2fa2:	4620      	mov	r0, r4
    2fa4:	6859      	ldr	r1, [r3, #4]
    2fa6:	689a      	ldr	r2, [r3, #8]
    2fa8:	f7fe fa98 	bl	14dc <d_append_buffer>
    2fac:	e195      	b.n	32da <d_print_comp+0x96e>
    2fae:	496b      	ldr	r1, [pc, #428]	; (315c <d_print_comp+0x7f0>)
    2fb0:	4620      	mov	r0, r4
    2fb2:	f7fe fab3 	bl	151c <d_append_string>
    2fb6:	e123      	b.n	3200 <d_print_comp+0x894>
    2fb8:	4620      	mov	r0, r4
    2fba:	4968      	ldr	r1, [pc, #416]	; (315c <d_print_comp+0x7f0>)
    2fbc:	f7fe faae 	bl	151c <d_append_string>
    2fc0:	4620      	mov	r0, r4
    2fc2:	1d29      	adds	r1, r5, #4
    2fc4:	f7ff fc95 	bl	28f2 <d_print_cast.clone.6>
    2fc8:	e187      	b.n	32da <d_print_comp+0x96e>
    2fca:	6869      	ldr	r1, [r5, #4]
    2fcc:	780b      	ldrb	r3, [r1, #0]
    2fce:	2b2e      	cmp	r3, #46	; 0x2e
    2fd0:	d003      	beq.n	2fda <d_print_comp+0x66e>
    2fd2:	4620      	mov	r0, r4
    2fd4:	f000 fb1a 	bl	360c <d_print_expr_op>
    2fd8:	e00c      	b.n	2ff4 <d_print_comp+0x688>
    2fda:	4620      	mov	r0, r4
    2fdc:	2128      	movs	r1, #40	; 0x28
    2fde:	f7fe fa6a 	bl	14b6 <d_append_char>
    2fe2:	6869      	ldr	r1, [r5, #4]
    2fe4:	4620      	mov	r0, r4
    2fe6:	3104      	adds	r1, #4
    2fe8:	f7ff fc83 	bl	28f2 <d_print_cast.clone.6>
    2fec:	4620      	mov	r0, r4
    2fee:	2129      	movs	r1, #41	; 0x29
    2ff0:	f7fe fa61 	bl	14b6 <d_append_char>
    2ff4:	4620      	mov	r0, r4
    2ff6:	68a9      	ldr	r1, [r5, #8]
    2ff8:	e06d      	b.n	30d6 <d_print_comp+0x76a>
    2ffa:	68ab      	ldr	r3, [r5, #8]
    2ffc:	781b      	ldrb	r3, [r3, #0]
    2ffe:	2b31      	cmp	r3, #49	; 0x31
    3000:	f040 8167 	bne.w	32d2 <d_print_comp+0x966>
    3004:	686b      	ldr	r3, [r5, #4]
    3006:	781a      	ldrb	r2, [r3, #0]
    3008:	2a2c      	cmp	r2, #44	; 0x2c
    300a:	d10b      	bne.n	3024 <d_print_comp+0x6b8>
    300c:	685b      	ldr	r3, [r3, #4]
    300e:	689a      	ldr	r2, [r3, #8]
    3010:	2a01      	cmp	r2, #1
    3012:	d107      	bne.n	3024 <d_print_comp+0x6b8>
    3014:	685b      	ldr	r3, [r3, #4]
    3016:	781b      	ldrb	r3, [r3, #0]
    3018:	2b3e      	cmp	r3, #62	; 0x3e
    301a:	d103      	bne.n	3024 <d_print_comp+0x6b8>
    301c:	4620      	mov	r0, r4
    301e:	2128      	movs	r1, #40	; 0x28
    3020:	f7fe fa49 	bl	14b6 <d_append_char>
    3024:	68ab      	ldr	r3, [r5, #8]
    3026:	4620      	mov	r0, r4
    3028:	6859      	ldr	r1, [r3, #4]
    302a:	f000 faf9 	bl	3620 <d_print_subexpr>
    302e:	686e      	ldr	r6, [r5, #4]
    3030:	494b      	ldr	r1, [pc, #300]	; (3160 <d_print_comp+0x7f4>)
    3032:	6873      	ldr	r3, [r6, #4]
    3034:	681f      	ldr	r7, [r3, #0]
    3036:	4638      	mov	r0, r7
    3038:	f004 fca5 	bl	7986 <strcmp>
    303c:	b968      	cbnz	r0, 305a <d_print_comp+0x6ee>
    303e:	4620      	mov	r0, r4
    3040:	215b      	movs	r1, #91	; 0x5b
    3042:	f7fe fa38 	bl	14b6 <d_append_char>
    3046:	68ab      	ldr	r3, [r5, #8]
    3048:	4620      	mov	r0, r4
    304a:	6899      	ldr	r1, [r3, #8]
    304c:	f7ff fc8e 	bl	296c <d_print_comp>
    3050:	4620      	mov	r0, r4
    3052:	215d      	movs	r1, #93	; 0x5d
    3054:	f7fe fa2f 	bl	14b6 <d_append_char>
    3058:	e00d      	b.n	3076 <d_print_comp+0x70a>
    305a:	4638      	mov	r0, r7
    305c:	4941      	ldr	r1, [pc, #260]	; (3164 <d_print_comp+0x7f8>)
    305e:	f004 fc92 	bl	7986 <strcmp>
    3062:	b118      	cbz	r0, 306c <d_print_comp+0x700>
    3064:	4620      	mov	r0, r4
    3066:	4631      	mov	r1, r6
    3068:	f000 fad0 	bl	360c <d_print_expr_op>
    306c:	68ab      	ldr	r3, [r5, #8]
    306e:	4620      	mov	r0, r4
    3070:	6899      	ldr	r1, [r3, #8]
    3072:	f000 fad5 	bl	3620 <d_print_subexpr>
    3076:	686b      	ldr	r3, [r5, #4]
    3078:	781a      	ldrb	r2, [r3, #0]
    307a:	2a2c      	cmp	r2, #44	; 0x2c
    307c:	f040 812d 	bne.w	32da <d_print_comp+0x96e>
    3080:	685b      	ldr	r3, [r3, #4]
    3082:	689a      	ldr	r2, [r3, #8]
    3084:	2a01      	cmp	r2, #1
    3086:	f040 8128 	bne.w	32da <d_print_comp+0x96e>
    308a:	685b      	ldr	r3, [r3, #4]
    308c:	781b      	ldrb	r3, [r3, #0]
    308e:	2b3e      	cmp	r3, #62	; 0x3e
    3090:	f040 8123 	bne.w	32da <d_print_comp+0x96e>
    3094:	e0c2      	b.n	321c <d_print_comp+0x8b0>
    3096:	68ab      	ldr	r3, [r5, #8]
    3098:	781a      	ldrb	r2, [r3, #0]
    309a:	2a33      	cmp	r2, #51	; 0x33
    309c:	f040 8119 	bne.w	32d2 <d_print_comp+0x966>
    30a0:	689a      	ldr	r2, [r3, #8]
    30a2:	7812      	ldrb	r2, [r2, #0]
    30a4:	2a34      	cmp	r2, #52	; 0x34
    30a6:	f040 8114 	bne.w	32d2 <d_print_comp+0x966>
    30aa:	6859      	ldr	r1, [r3, #4]
    30ac:	4620      	mov	r0, r4
    30ae:	f000 fab7 	bl	3620 <d_print_subexpr>
    30b2:	4620      	mov	r0, r4
    30b4:	6869      	ldr	r1, [r5, #4]
    30b6:	f000 faa9 	bl	360c <d_print_expr_op>
    30ba:	68ab      	ldr	r3, [r5, #8]
    30bc:	4620      	mov	r0, r4
    30be:	689b      	ldr	r3, [r3, #8]
    30c0:	6859      	ldr	r1, [r3, #4]
    30c2:	f000 faad 	bl	3620 <d_print_subexpr>
    30c6:	4620      	mov	r0, r4
    30c8:	4927      	ldr	r1, [pc, #156]	; (3168 <d_print_comp+0x7fc>)
    30ca:	f7fe fa27 	bl	151c <d_append_string>
    30ce:	68ab      	ldr	r3, [r5, #8]
    30d0:	4620      	mov	r0, r4
    30d2:	689b      	ldr	r3, [r3, #8]
    30d4:	6899      	ldr	r1, [r3, #8]
    30d6:	f000 faa3 	bl	3620 <d_print_subexpr>
    30da:	e0fe      	b.n	32da <d_print_comp+0x96e>
    30dc:	686a      	ldr	r2, [r5, #4]
    30de:	7811      	ldrb	r1, [r2, #0]
    30e0:	2923      	cmp	r1, #35	; 0x23
    30e2:	d15e      	bne.n	31a2 <d_print_comp+0x836>
    30e4:	6852      	ldr	r2, [r2, #4]
    30e6:	7c16      	ldrb	r6, [r2, #16]
    30e8:	2e00      	cmp	r6, #0
    30ea:	d05b      	beq.n	31a4 <d_print_comp+0x838>
    30ec:	2e06      	cmp	r6, #6
    30ee:	d902      	bls.n	30f6 <d_print_comp+0x78a>
    30f0:	2e07      	cmp	r6, #7
    30f2:	d157      	bne.n	31a4 <d_print_comp+0x838>
    30f4:	e040      	b.n	3178 <d_print_comp+0x80c>
    30f6:	68aa      	ldr	r2, [r5, #8]
    30f8:	7812      	ldrb	r2, [r2, #0]
    30fa:	2a00      	cmp	r2, #0
    30fc:	d152      	bne.n	31a4 <d_print_comp+0x838>
    30fe:	2b36      	cmp	r3, #54	; 0x36
    3100:	d103      	bne.n	310a <d_print_comp+0x79e>
    3102:	4620      	mov	r0, r4
    3104:	212d      	movs	r1, #45	; 0x2d
    3106:	f7fe f9d6 	bl	14b6 <d_append_char>
    310a:	4620      	mov	r0, r4
    310c:	68a9      	ldr	r1, [r5, #8]
    310e:	3e02      	subs	r6, #2
    3110:	f7ff fc2c 	bl	296c <d_print_comp>
    3114:	2e04      	cmp	r6, #4
    3116:	f200 80e0 	bhi.w	32da <d_print_comp+0x96e>
    311a:	e8df f006 	tbb	[pc, r6]
    311e:	0603      	.short	0x0603
    3120:	0c09      	.short	0x0c09
    3122:	0f          	.byte	0x0f
    3123:	00          	.byte	0x00
    3124:	4620      	mov	r0, r4
    3126:	2175      	movs	r1, #117	; 0x75
    3128:	e0d0      	b.n	32cc <d_print_comp+0x960>
    312a:	4620      	mov	r0, r4
    312c:	216c      	movs	r1, #108	; 0x6c
    312e:	e0cd      	b.n	32cc <d_print_comp+0x960>
    3130:	4620      	mov	r0, r4
    3132:	490e      	ldr	r1, [pc, #56]	; (316c <d_print_comp+0x800>)
    3134:	e080      	b.n	3238 <d_print_comp+0x8cc>
    3136:	4620      	mov	r0, r4
    3138:	490d      	ldr	r1, [pc, #52]	; (3170 <d_print_comp+0x804>)
    313a:	e07d      	b.n	3238 <d_print_comp+0x8cc>
    313c:	4620      	mov	r0, r4
    313e:	490d      	ldr	r1, [pc, #52]	; (3174 <d_print_comp+0x808>)
    3140:	e07a      	b.n	3238 <d_print_comp+0x8cc>
    3142:	bf00      	nop
    3144:	0000fcc7 	.word	0x0000fcc7
    3148:	0000f67c 	.word	0x0000f67c
    314c:	0000fccd 	.word	0x0000fccd
    3150:	0000fcd4 	.word	0x0000fcd4
    3154:	0000fcdb 	.word	0x0000fcdb
    3158:	0000fcde 	.word	0x0000fcde
    315c:	0000fce7 	.word	0x0000fce7
    3160:	0000fcf1 	.word	0x0000fcf1
    3164:	0000fbde 	.word	0x0000fbde
    3168:	0000fcf4 	.word	0x0000fcf4
    316c:	0000fcf8 	.word	0x0000fcf8
    3170:	0000fcfc 	.word	0x0000fcfc
    3174:	0000fcfb 	.word	0x0000fcfb
    3178:	68aa      	ldr	r2, [r5, #8]
    317a:	7811      	ldrb	r1, [r2, #0]
    317c:	b991      	cbnz	r1, 31a4 <d_print_comp+0x838>
    317e:	6891      	ldr	r1, [r2, #8]
    3180:	2901      	cmp	r1, #1
    3182:	d10f      	bne.n	31a4 <d_print_comp+0x838>
    3184:	2b35      	cmp	r3, #53	; 0x35
    3186:	d10d      	bne.n	31a4 <d_print_comp+0x838>
    3188:	6853      	ldr	r3, [r2, #4]
    318a:	781b      	ldrb	r3, [r3, #0]
    318c:	2b30      	cmp	r3, #48	; 0x30
    318e:	d002      	beq.n	3196 <d_print_comp+0x82a>
    3190:	2b31      	cmp	r3, #49	; 0x31
    3192:	d107      	bne.n	31a4 <d_print_comp+0x838>
    3194:	e002      	b.n	319c <d_print_comp+0x830>
    3196:	4620      	mov	r0, r4
    3198:	4951      	ldr	r1, [pc, #324]	; (32e0 <d_print_comp+0x974>)
    319a:	e04d      	b.n	3238 <d_print_comp+0x8cc>
    319c:	4620      	mov	r0, r4
    319e:	4951      	ldr	r1, [pc, #324]	; (32e4 <d_print_comp+0x978>)
    31a0:	e04a      	b.n	3238 <d_print_comp+0x8cc>
    31a2:	2600      	movs	r6, #0
    31a4:	2128      	movs	r1, #40	; 0x28
    31a6:	4620      	mov	r0, r4
    31a8:	f7fe f985 	bl	14b6 <d_append_char>
    31ac:	4620      	mov	r0, r4
    31ae:	6869      	ldr	r1, [r5, #4]
    31b0:	f7ff fbdc 	bl	296c <d_print_comp>
    31b4:	2129      	movs	r1, #41	; 0x29
    31b6:	4620      	mov	r0, r4
    31b8:	f7fe f97d 	bl	14b6 <d_append_char>
    31bc:	782b      	ldrb	r3, [r5, #0]
    31be:	2b36      	cmp	r3, #54	; 0x36
    31c0:	d103      	bne.n	31ca <d_print_comp+0x85e>
    31c2:	4620      	mov	r0, r4
    31c4:	212d      	movs	r1, #45	; 0x2d
    31c6:	f7fe f976 	bl	14b6 <d_append_char>
    31ca:	2e08      	cmp	r6, #8
    31cc:	d103      	bne.n	31d6 <d_print_comp+0x86a>
    31ce:	4620      	mov	r0, r4
    31d0:	215b      	movs	r1, #91	; 0x5b
    31d2:	f7fe f970 	bl	14b6 <d_append_char>
    31d6:	4620      	mov	r0, r4
    31d8:	68a9      	ldr	r1, [r5, #8]
    31da:	f7ff fbc7 	bl	296c <d_print_comp>
    31de:	2e08      	cmp	r6, #8
    31e0:	d17b      	bne.n	32da <d_print_comp+0x96e>
    31e2:	4620      	mov	r0, r4
    31e4:	215d      	movs	r1, #93	; 0x5d
    31e6:	e071      	b.n	32cc <d_print_comp+0x960>
    31e8:	4620      	mov	r0, r4
    31ea:	6869      	ldr	r1, [r5, #4]
    31ec:	f7fe f9a2 	bl	1534 <d_append_num>
    31f0:	e073      	b.n	32da <d_print_comp+0x96e>
    31f2:	4620      	mov	r0, r4
    31f4:	493c      	ldr	r1, [pc, #240]	; (32e8 <d_print_comp+0x97c>)
    31f6:	e049      	b.n	328c <d_print_comp+0x920>
    31f8:	4620      	mov	r0, r4
    31fa:	6869      	ldr	r1, [r5, #4]
    31fc:	f7ff fbb6 	bl	296c <d_print_comp>
    3200:	4620      	mov	r0, r4
    3202:	68a9      	ldr	r1, [r5, #8]
    3204:	e046      	b.n	3294 <d_print_comp+0x928>
    3206:	4620      	mov	r0, r4
    3208:	7929      	ldrb	r1, [r5, #4]
    320a:	e05f      	b.n	32cc <d_print_comp+0x960>
    320c:	4620      	mov	r0, r4
    320e:	4937      	ldr	r1, [pc, #220]	; (32ec <d_print_comp+0x980>)
    3210:	f7fe f984 	bl	151c <d_append_string>
    3214:	4620      	mov	r0, r4
    3216:	6869      	ldr	r1, [r5, #4]
    3218:	f7ff fba8 	bl	296c <d_print_comp>
    321c:	4620      	mov	r0, r4
    321e:	2129      	movs	r1, #41	; 0x29
    3220:	e054      	b.n	32cc <d_print_comp+0x960>
    3222:	4620      	mov	r0, r4
    3224:	6869      	ldr	r1, [r5, #4]
    3226:	f7ff fb2d 	bl	2884 <d_find_pack>
    322a:	b960      	cbnz	r0, 3246 <d_print_comp+0x8da>
    322c:	4620      	mov	r0, r4
    322e:	6869      	ldr	r1, [r5, #4]
    3230:	f000 f9f6 	bl	3620 <d_print_subexpr>
    3234:	492e      	ldr	r1, [pc, #184]	; (32f0 <d_print_comp+0x984>)
    3236:	4620      	mov	r0, r4
    3238:	f7fe f970 	bl	151c <d_append_string>
    323c:	e04d      	b.n	32da <d_print_comp+0x96e>
    323e:	6880      	ldr	r0, [r0, #8]
    3240:	3601      	adds	r6, #1
    3242:	b908      	cbnz	r0, 3248 <d_print_comp+0x8dc>
    3244:	e006      	b.n	3254 <d_print_comp+0x8e8>
    3246:	2600      	movs	r6, #0
    3248:	7803      	ldrb	r3, [r0, #0]
    324a:	2b2b      	cmp	r3, #43	; 0x2b
    324c:	d102      	bne.n	3254 <d_print_comp+0x8e8>
    324e:	6843      	ldr	r3, [r0, #4]
    3250:	2b00      	cmp	r3, #0
    3252:	d1f4      	bne.n	323e <d_print_comp+0x8d2>
    3254:	686f      	ldr	r7, [r5, #4]
    3256:	2500      	movs	r5, #0
    3258:	e00d      	b.n	3276 <d_print_comp+0x90a>
    325a:	f8c4 5120 	str.w	r5, [r4, #288]	; 0x120
    325e:	4620      	mov	r0, r4
    3260:	4639      	mov	r1, r7
    3262:	f7ff fb83 	bl	296c <d_print_comp>
    3266:	1e73      	subs	r3, r6, #1
    3268:	429d      	cmp	r5, r3
    326a:	da03      	bge.n	3274 <d_print_comp+0x908>
    326c:	4620      	mov	r0, r4
    326e:	4921      	ldr	r1, [pc, #132]	; (32f4 <d_print_comp+0x988>)
    3270:	f7fe f954 	bl	151c <d_append_string>
    3274:	3501      	adds	r5, #1
    3276:	42b5      	cmp	r5, r6
    3278:	dbef      	blt.n	325a <d_print_comp+0x8ee>
    327a:	e02e      	b.n	32da <d_print_comp+0x96e>
    327c:	4620      	mov	r0, r4
    327e:	491e      	ldr	r1, [pc, #120]	; (32f8 <d_print_comp+0x98c>)
    3280:	e01b      	b.n	32ba <d_print_comp+0x94e>
    3282:	4620      	mov	r0, r4
    3284:	491d      	ldr	r1, [pc, #116]	; (32fc <d_print_comp+0x990>)
    3286:	e001      	b.n	328c <d_print_comp+0x920>
    3288:	491d      	ldr	r1, [pc, #116]	; (3300 <d_print_comp+0x994>)
    328a:	4620      	mov	r0, r4
    328c:	f7fe f946 	bl	151c <d_append_string>
    3290:	6869      	ldr	r1, [r5, #4]
    3292:	4620      	mov	r0, r4
    3294:	f7ff fb6a 	bl	296c <d_print_comp>
    3298:	e01f      	b.n	32da <d_print_comp+0x96e>
    329a:	4620      	mov	r0, r4
    329c:	4919      	ldr	r1, [pc, #100]	; (3304 <d_print_comp+0x998>)
    329e:	f7fe f93d 	bl	151c <d_append_string>
    32a2:	4620      	mov	r0, r4
    32a4:	6869      	ldr	r1, [r5, #4]
    32a6:	f7ff fb61 	bl	296c <d_print_comp>
    32aa:	4917      	ldr	r1, [pc, #92]	; (3308 <d_print_comp+0x99c>)
    32ac:	4620      	mov	r0, r4
    32ae:	f7fe f935 	bl	151c <d_append_string>
    32b2:	68a9      	ldr	r1, [r5, #8]
    32b4:	e004      	b.n	32c0 <d_print_comp+0x954>
    32b6:	4915      	ldr	r1, [pc, #84]	; (330c <d_print_comp+0x9a0>)
    32b8:	4620      	mov	r0, r4
    32ba:	f7fe f92f 	bl	151c <d_append_string>
    32be:	6869      	ldr	r1, [r5, #4]
    32c0:	4620      	mov	r0, r4
    32c2:	3101      	adds	r1, #1
    32c4:	f7fe f936 	bl	1534 <d_append_num>
    32c8:	4620      	mov	r0, r4
    32ca:	217d      	movs	r1, #125	; 0x7d
    32cc:	f7fe f8f3 	bl	14b6 <d_append_char>
    32d0:	e003      	b.n	32da <d_print_comp+0x96e>
    32d2:	f504 708e 	add.w	r0, r4, #284	; 0x11c
    32d6:	f7ff fabd 	bl	2854 <d_print_error.clone.1>
    32da:	b012      	add	sp, #72	; 0x48
    32dc:	e8bd 87f0 	ldmia.w	sp!, {r4, r5, r6, r7, r8, r9, sl, pc}
    32e0:	0000fcff 	.word	0x0000fcff
    32e4:	0000fd05 	.word	0x0000fd05
    32e8:	0000fd0a 	.word	0x0000fd0a
    32ec:	0000fd19 	.word	0x0000fd19
    32f0:	0000fd24 	.word	0x0000fd24
    32f4:	0000fcdb 	.word	0x0000fcdb
    32f8:	0000fd28 	.word	0x0000fd28
    32fc:	0000fd2f 	.word	0x0000fd2f
    3300:	0000fd4d 	.word	0x0000fd4d
    3304:	0000fd6a 	.word	0x0000fd6a
    3308:	0000fd73 	.word	0x0000fd73
    330c:	0000fd76 	.word	0x0000fd76

00003310 <d_print_mod>:
    3310:	780b      	ldrb	r3, [r1, #0]
    3312:	b570      	push	{r4, r5, r6, lr}
    3314:	3b03      	subs	r3, #3
    3316:	4604      	mov	r4, r0
    3318:	460d      	mov	r5, r1
    331a:	2b26      	cmp	r3, #38	; 0x26
    331c:	d84f      	bhi.n	33be <d_print_mod+0xae>
    331e:	e8df f003 	tbb	[pc, r3]
    3322:	4e3f      	.short	0x4e3f
    3324:	4e4e4e4e 	.word	0x4e4e4e4e
    3328:	4e4e4e4e 	.word	0x4e4e4e4e
    332c:	4e4e4e4e 	.word	0x4e4e4e4e
    3330:	4e4e4e4e 	.word	0x4e4e4e4e
    3334:	16144e4e 	.word	0x16144e4e
    3338:	1b16141b 	.word	0x1b16141b
    333c:	2b29231d 	.word	0x2b29231d
    3340:	4e4e2f2d 	.word	0x4e4e2f2d
    3344:	4e314e4e 	.word	0x4e314e4e
    3348:	41          	.byte	0x41
    3349:	00          	.byte	0x00
    334a:	491f      	ldr	r1, [pc, #124]	; (33c8 <d_print_mod+0xb8>)
    334c:	e000      	b.n	3350 <d_print_mod+0x40>
    334e:	491f      	ldr	r1, [pc, #124]	; (33cc <d_print_mod+0xbc>)
    3350:	e8bd 4070 	ldmia.w	sp!, {r4, r5, r6, lr}
    3354:	f7fe b8e2 	b.w	151c <d_append_string>
    3358:	491d      	ldr	r1, [pc, #116]	; (33d0 <d_print_mod+0xc0>)
    335a:	e7f9      	b.n	3350 <d_print_mod+0x40>
    335c:	2120      	movs	r1, #32
    335e:	f7fe f8aa 	bl	14b6 <d_append_char>
    3362:	4620      	mov	r0, r4
    3364:	68a9      	ldr	r1, [r5, #8]
    3366:	e02a      	b.n	33be <d_print_mod+0xae>
    3368:	6803      	ldr	r3, [r0, #0]
    336a:	f013 0f04 	tst.w	r3, #4
    336e:	d12a      	bne.n	33c6 <d_print_mod+0xb6>
    3370:	212a      	movs	r1, #42	; 0x2a
    3372:	e020      	b.n	33b6 <d_print_mod+0xa6>
    3374:	2126      	movs	r1, #38	; 0x26
    3376:	e01e      	b.n	33b6 <d_print_mod+0xa6>
    3378:	4916      	ldr	r1, [pc, #88]	; (33d4 <d_print_mod+0xc4>)
    337a:	e7e9      	b.n	3350 <d_print_mod+0x40>
    337c:	4916      	ldr	r1, [pc, #88]	; (33d8 <d_print_mod+0xc8>)
    337e:	e7e7      	b.n	3350 <d_print_mod+0x40>
    3380:	4916      	ldr	r1, [pc, #88]	; (33dc <d_print_mod+0xcc>)
    3382:	e7e5      	b.n	3350 <d_print_mod+0x40>
    3384:	f890 3108 	ldrb.w	r3, [r0, #264]	; 0x108
    3388:	2b28      	cmp	r3, #40	; 0x28
    338a:	d002      	beq.n	3392 <d_print_mod+0x82>
    338c:	2120      	movs	r1, #32
    338e:	f7fe f892 	bl	14b6 <d_append_char>
    3392:	4620      	mov	r0, r4
    3394:	6869      	ldr	r1, [r5, #4]
    3396:	f7ff fae9 	bl	296c <d_print_comp>
    339a:	4620      	mov	r0, r4
    339c:	4910      	ldr	r1, [pc, #64]	; (33e0 <d_print_mod+0xd0>)
    339e:	e7d7      	b.n	3350 <d_print_mod+0x40>
    33a0:	6849      	ldr	r1, [r1, #4]
    33a2:	e00c      	b.n	33be <d_print_mod+0xae>
    33a4:	490f      	ldr	r1, [pc, #60]	; (33e4 <d_print_mod+0xd4>)
    33a6:	f7fe f8b9 	bl	151c <d_append_string>
    33aa:	4620      	mov	r0, r4
    33ac:	6869      	ldr	r1, [r5, #4]
    33ae:	f7ff fadd 	bl	296c <d_print_comp>
    33b2:	4620      	mov	r0, r4
    33b4:	2129      	movs	r1, #41	; 0x29
    33b6:	e8bd 4070 	ldmia.w	sp!, {r4, r5, r6, lr}
    33ba:	f7fe b87c 	b.w	14b6 <d_append_char>
    33be:	e8bd 4070 	ldmia.w	sp!, {r4, r5, r6, lr}
    33c2:	f7ff bad3 	b.w	296c <d_print_comp>
    33c6:	bd70      	pop	{r4, r5, r6, pc}
    33c8:	0000fd85 	.word	0x0000fd85
    33cc:	0000fd8f 	.word	0x0000fd8f
    33d0:	0000fd99 	.word	0x0000fd99
    33d4:	0000fda0 	.word	0x0000fda0
    33d8:	0000fda3 	.word	0x0000fda3
    33dc:	0000fdac 	.word	0x0000fdac
    33e0:	0000fdb7 	.word	0x0000fdb7
    33e4:	0000fdbb 	.word	0x0000fdbb

000033e8 <d_print_mod_list>:
    33e8:	b5f8      	push	{r3, r4, r5, r6, r7, lr}
    33ea:	4604      	mov	r4, r0
    33ec:	460d      	mov	r5, r1
    33ee:	4617      	mov	r7, r2
    33f0:	2d00      	cmp	r5, #0
    33f2:	d067      	beq.n	34c4 <d_print_mod_list+0xdc>
    33f4:	f8d4 011c 	ldr.w	r0, [r4, #284]	; 0x11c
    33f8:	f7ff fa2f 	bl	285a <d_print_saw_error.clone.2>
    33fc:	2800      	cmp	r0, #0
    33fe:	d161      	bne.n	34c4 <d_print_mod_list+0xdc>
    3400:	68ab      	ldr	r3, [r5, #8]
    3402:	2b00      	cmp	r3, #0
    3404:	d15c      	bne.n	34c0 <d_print_mod_list+0xd8>
    3406:	b92f      	cbnz	r7, 3414 <d_print_mod_list+0x2c>
    3408:	686b      	ldr	r3, [r5, #4]
    340a:	781b      	ldrb	r3, [r3, #0]
    340c:	3b1a      	subs	r3, #26
    340e:	b2db      	uxtb	r3, r3
    3410:	2b02      	cmp	r3, #2
    3412:	d955      	bls.n	34c0 <d_print_mod_list+0xd8>
    3414:	2301      	movs	r3, #1
    3416:	6869      	ldr	r1, [r5, #4]
    3418:	60ab      	str	r3, [r5, #8]
    341a:	68eb      	ldr	r3, [r5, #12]
    341c:	f8d4 6114 	ldr.w	r6, [r4, #276]	; 0x114
    3420:	f8c4 3114 	str.w	r3, [r4, #276]	; 0x114
    3424:	780b      	ldrb	r3, [r1, #0]
    3426:	2b25      	cmp	r3, #37	; 0x25
    3428:	d104      	bne.n	3434 <d_print_mod_list+0x4c>
    342a:	4620      	mov	r0, r4
    342c:	682a      	ldr	r2, [r5, #0]
    342e:	f000 f88b 	bl	3548 <d_print_function_type>
    3432:	e03d      	b.n	34b0 <d_print_mod_list+0xc8>
    3434:	2b26      	cmp	r3, #38	; 0x26
    3436:	d105      	bne.n	3444 <d_print_mod_list+0x5c>
    3438:	4620      	mov	r0, r4
    343a:	3104      	adds	r1, #4
    343c:	682a      	ldr	r2, [r5, #0]
    343e:	f000 f849 	bl	34d4 <d_print_array_type.clone.5>
    3442:	e035      	b.n	34b0 <d_print_mod_list+0xc8>
    3444:	2b02      	cmp	r3, #2
    3446:	d136      	bne.n	34b6 <d_print_mod_list+0xce>
    3448:	3b02      	subs	r3, #2
    344a:	f8d4 7118 	ldr.w	r7, [r4, #280]	; 0x118
    344e:	4620      	mov	r0, r4
    3450:	f8c4 3118 	str.w	r3, [r4, #280]	; 0x118
    3454:	6849      	ldr	r1, [r1, #4]
    3456:	f7ff fa89 	bl	296c <d_print_comp>
    345a:	6823      	ldr	r3, [r4, #0]
    345c:	f8c4 7118 	str.w	r7, [r4, #280]	; 0x118
    3460:	f013 0f04 	tst.w	r3, #4
    3464:	d104      	bne.n	3470 <d_print_mod_list+0x88>
    3466:	4620      	mov	r0, r4
    3468:	4917      	ldr	r1, [pc, #92]	; (34c8 <d_print_mod_list+0xe0>)
    346a:	f7fe f857 	bl	151c <d_append_string>
    346e:	e003      	b.n	3478 <d_print_mod_list+0x90>
    3470:	4620      	mov	r0, r4
    3472:	212e      	movs	r1, #46	; 0x2e
    3474:	f7fe f81f 	bl	14b6 <d_append_char>
    3478:	686b      	ldr	r3, [r5, #4]
    347a:	689d      	ldr	r5, [r3, #8]
    347c:	782b      	ldrb	r3, [r5, #0]
    347e:	2b3f      	cmp	r3, #63	; 0x3f
    3480:	d10d      	bne.n	349e <d_print_mod_list+0xb6>
    3482:	4620      	mov	r0, r4
    3484:	4911      	ldr	r1, [pc, #68]	; (34cc <d_print_mod_list+0xe4>)
    3486:	f7fe f849 	bl	151c <d_append_string>
    348a:	68a9      	ldr	r1, [r5, #8]
    348c:	4620      	mov	r0, r4
    348e:	3101      	adds	r1, #1
    3490:	f7fe f850 	bl	1534 <d_append_num>
    3494:	4620      	mov	r0, r4
    3496:	490e      	ldr	r1, [pc, #56]	; (34d0 <d_print_mod_list+0xe8>)
    3498:	f7fe f840 	bl	151c <d_append_string>
    349c:	686d      	ldr	r5, [r5, #4]
    349e:	782b      	ldrb	r3, [r5, #0]
    34a0:	3b1a      	subs	r3, #26
    34a2:	b2db      	uxtb	r3, r3
    34a4:	2b02      	cmp	r3, #2
    34a6:	d9f9      	bls.n	349c <d_print_mod_list+0xb4>
    34a8:	4620      	mov	r0, r4
    34aa:	4629      	mov	r1, r5
    34ac:	f7ff fa5e 	bl	296c <d_print_comp>
    34b0:	f8c4 6114 	str.w	r6, [r4, #276]	; 0x114
    34b4:	bdf8      	pop	{r3, r4, r5, r6, r7, pc}
    34b6:	4620      	mov	r0, r4
    34b8:	f7ff ff2a 	bl	3310 <d_print_mod>
    34bc:	f8c4 6114 	str.w	r6, [r4, #276]	; 0x114
    34c0:	682d      	ldr	r5, [r5, #0]
    34c2:	e795      	b.n	33f0 <d_print_mod_list+0x8>
    34c4:	bdf8      	pop	{r3, r4, r5, r6, r7, pc}
    34c6:	bf00      	nop
    34c8:	0000fdd5 	.word	0x0000fdd5
    34cc:	0000fdc6 	.word	0x0000fdc6
    34d0:	0000fdd4 	.word	0x0000fdd4

000034d4 <d_print_array_type.clone.5>:
    34d4:	e92d 41f0 	stmdb	sp!, {r4, r5, r6, r7, r8, lr}
    34d8:	4604      	mov	r4, r0
    34da:	460f      	mov	r7, r1
    34dc:	4690      	mov	r8, r2
    34de:	b1ba      	cbz	r2, 3510 <d_print_array_type.clone.5+0x3c>
    34e0:	4613      	mov	r3, r2
    34e2:	689d      	ldr	r5, [r3, #8]
    34e4:	b925      	cbnz	r5, 34f0 <d_print_array_type.clone.5+0x1c>
    34e6:	685b      	ldr	r3, [r3, #4]
    34e8:	781b      	ldrb	r3, [r3, #0]
    34ea:	2b26      	cmp	r3, #38	; 0x26
    34ec:	d123      	bne.n	3536 <d_print_array_type.clone.5+0x62>
    34ee:	e003      	b.n	34f8 <d_print_array_type.clone.5+0x24>
    34f0:	681b      	ldr	r3, [r3, #0]
    34f2:	2b00      	cmp	r3, #0
    34f4:	d1f5      	bne.n	34e2 <d_print_array_type.clone.5+0xe>
    34f6:	2501      	movs	r5, #1
    34f8:	2600      	movs	r6, #0
    34fa:	4620      	mov	r0, r4
    34fc:	4641      	mov	r1, r8
    34fe:	2200      	movs	r2, #0
    3500:	f7ff ff72 	bl	33e8 <d_print_mod_list>
    3504:	b11e      	cbz	r6, 350e <d_print_array_type.clone.5+0x3a>
    3506:	4620      	mov	r0, r4
    3508:	2129      	movs	r1, #41	; 0x29
    350a:	f7fd ffd4 	bl	14b6 <d_append_char>
    350e:	b11d      	cbz	r5, 3518 <d_print_array_type.clone.5+0x44>
    3510:	4620      	mov	r0, r4
    3512:	2120      	movs	r1, #32
    3514:	f7fd ffcf 	bl	14b6 <d_append_char>
    3518:	215b      	movs	r1, #91	; 0x5b
    351a:	4620      	mov	r0, r4
    351c:	f7fd ffcb 	bl	14b6 <d_append_char>
    3520:	6839      	ldr	r1, [r7, #0]
    3522:	b111      	cbz	r1, 352a <d_print_array_type.clone.5+0x56>
    3524:	4620      	mov	r0, r4
    3526:	f7ff fa21 	bl	296c <d_print_comp>
    352a:	4620      	mov	r0, r4
    352c:	215d      	movs	r1, #93	; 0x5d
    352e:	e8bd 41f0 	ldmia.w	sp!, {r4, r5, r6, r7, r8, lr}
    3532:	f7fd bfc0 	b.w	14b6 <d_append_char>
    3536:	4620      	mov	r0, r4
    3538:	4902      	ldr	r1, [pc, #8]	; (3544 <d_print_array_type.clone.5+0x70>)
    353a:	2501      	movs	r5, #1
    353c:	f7fd ffee 	bl	151c <d_append_string>
    3540:	462e      	mov	r6, r5
    3542:	e7da      	b.n	34fa <d_print_array_type.clone.5+0x26>
    3544:	0000fd21 	.word	0x0000fd21

00003548 <d_print_function_type>:
    3548:	e92d 41f0 	stmdb	sp!, {r4, r5, r6, r7, r8, lr}
    354c:	4613      	mov	r3, r2
    354e:	4616      	mov	r6, r2
    3550:	4604      	mov	r4, r0
    3552:	460f      	mov	r7, r1
    3554:	2200      	movs	r2, #0
    3556:	e011      	b.n	357c <d_print_function_type+0x34>
    3558:	6899      	ldr	r1, [r3, #8]
    355a:	b991      	cbnz	r1, 3582 <d_print_function_type+0x3a>
    355c:	685a      	ldr	r2, [r3, #4]
    355e:	7812      	ldrb	r2, [r2, #0]
    3560:	3a17      	subs	r2, #23
    3562:	b2d0      	uxtb	r0, r2
    3564:	2810      	cmp	r0, #16
    3566:	d807      	bhi.n	3578 <d_print_function_type+0x30>
    3568:	4827      	ldr	r0, [pc, #156]	; (3608 <d_print_function_type+0xc0>)
    356a:	b252      	sxtb	r2, r2
    356c:	4090      	lsls	r0, r2
    356e:	d446      	bmi.n	35fe <d_print_function_type+0xb6>
    3570:	f04f 70e0 	mov.w	r0, #29360128	; 0x1c00000
    3574:	4090      	lsls	r0, r2
    3576:	d440      	bmi.n	35fa <d_print_function_type+0xb2>
    3578:	681b      	ldr	r3, [r3, #0]
    357a:	2201      	movs	r2, #1
    357c:	2b00      	cmp	r3, #0
    357e:	d1eb      	bne.n	3558 <d_print_function_type+0x10>
    3580:	e000      	b.n	3584 <d_print_function_type+0x3c>
    3582:	2300      	movs	r3, #0
    3584:	461d      	mov	r5, r3
    3586:	6879      	ldr	r1, [r7, #4]
    3588:	b101      	cbz	r1, 358c <d_print_function_type+0x44>
    358a:	b102      	cbz	r2, 358e <d_print_function_type+0x46>
    358c:	b18d      	cbz	r5, 35b2 <d_print_function_type+0x6a>
    358e:	f894 2108 	ldrb.w	r2, [r4, #264]	; 0x108
    3592:	b91b      	cbnz	r3, 359c <d_print_function_type+0x54>
    3594:	2a28      	cmp	r2, #40	; 0x28
